Certificate:
    Data:
        Version: 3 (0x2)
        Serial Number:
            57:cb:8a:61:ea:e0:b4:bb:80:a6:cb:d7:04:8b:c6:40
    Signature Algorithm: sha256WithRSAEncryption
        Issuer: CN=Easy-RSA CA
        Validity
            Not Before: Sep 24 03:19:09 2023 GMT
            Not After : Sep 21 03:19:09 2033 GMT
        Subject: CN=server
        Subject Public Key Info:
            Public Key Algorithm: rsaEncryption
                Public-Key: (2048 bit)
                Modulus:
                    00:ba:bc:5b:8f:c2:8e:cc:0f:95:08:6c:54:3a:e3:
                    41:53:6c:8a:e5:f2:f4:57:91:09:a0:8a:f5:c0:86:
                    20:da:5b:f3:2c:b7:eb:f2:12:22:ed:1a:bd:4b:b4:
                    59:16:f6:9f:8d:bf:f2:86:71:d2:8a:45:2d:c3:64:
                    17:20:eb:46:7d:2e:d7:02:ed:3a:80:3c:43:19:28:
                    4a:00:86:05:2e:7c:f7:68:be:6f:ef:88:d2:4c:3e:
                    09:41:99:b6:5b:9f:b8:1d:3d:a6:bc:f6:15:57:6b:
                    8f:86:d0:94:ca:16:c7:b4:04:ee:f9:59:06:43:e9:
                    f0:f4:bf:3a:3e:3c:39:ef:b8:4c:99:11:25:39:18:
                    72:57:f8:f0:1e:b0:23:8c:0a:92:93:ea:d1:70:75:
                    bd:d8:8c:59:fb:d9:99:ab:ff:29:16:53:c0:5c:77:
                    aa:11:08:1f:3e:80:10:f6:f1:4e:e4:3a:c4:51:03:
                    6a:51:23:be:a3:e4:ec:7a:39:50:c0:f1:17:49:55:
                    76:2a:c9:1e:c7:0e:9b:9d:1e:c8:bd:1a:d6:0d:06:
                    4b:63:be:97:65:6b:6d:7b:69:ec:58:66:36:1f:5b:
                    7b:1c:e0:19:9d:67:2c:c0:0f:67:f8:a2:a9:2e:33:
                    f1:cc:0f:d1:37:f7:b7:56:69:93:b7:9f:a4:5c:59:
                    4f:87
                Exponent: 65537 (0x10001)
        X509v3 extensions:
            X509v3 Basic Constraints: 
                CA:FALSE
            X509v3 Subject Key Identifier: 
                84:B2:5B:F2:27:4C:8C:93:CD:86:57:0D:55:1C:23:3B:E0:44:3B:4A
            X509v3 Authority Key Identifier: 
                keyid:18:61:07:99:C9:83:4A:DB:81:CA:C3:DA:19:9D:34:2D:B7:A4:26:6D
                DirName:/CN=Easy-RSA CA
                serial:99:4E:D3:F6:9C:57:66:4D

            X509v3 Extended Key Usage: 
                TLS Web Server Authentication
            X509v3 Key Usage: 
                Digital Signature, Key Encipherment
            X509v3 Subject Alternative Name: 
                DNS:server
    Signature Algorithm: sha256WithRSAEncryption
         76:7b:5c:ec:08:4d:88:9b:88:82:b4:07:bf:b1:e1:13:21:89:
         d8:0b:4a:67:b0:a1:5d:5f:92:63:1a:53:06:34:7b:63:78:b5:
         73:65:0d:65:3c:b2:5c:66:3f:60:ec:84:65:b0:5e:e5:66:45:
         e4:90:c2:6a:98:65:4a:d5:82:4b:97:9a:30:e5:92:40:dc:f3:
         8c:d3:c8:3a:0c:79:79:85:a0:92:cf:db:5d:bc:6d:b3:e8:d0:
         2a:7e:dd:3d:6d:42:82:b5:2c:54:e5:7a:ce:84:2f:c8:eb:bc:
         df:05:11:42:99:c9:01:48:43:f7:b6:98:7e:dd:54:dd:1d:90:
         ce:61:c9:24:ff:51:d6:6d:db:95:22:eb:d9:f1:9e:e0:26:5f:
         3b:85:23:06:7b:28:d3:96:af:28:d1:7b:aa:e9:47:06:c4:ea:
         8b:af:be:d9:29:e0:49:61:66:77:c9:03:9f:e0:6d:71:7f:c7:
         b3:b8:e4:88:80:b8:4b:d7:50:a5:d0:94:96:0e:89:0c:da:d0:
         d0:ac:ca:62:56:2a:bb:28:91:80:14:81:96:a4:49:80:25:2b:
         95:f0:9d:36:12:98:bc:f1:82:d1:fa:75:95:eb:79:57:0a:df:
         2a:fd:91:2f:be:cb:5a:dd:75:49:84:95:7f:6f:b4:e3:2f:00:
         5a:b2:3e:6e
-----BEGIN CERTIFICATE-----
MIIDXDCCAkSgAwIBAgIQV8uKYergtLuApsvXBIvGQDANBgkqhkiG9w0BAQsFADAW
MRQwEgYDVQQDDAtFYXN5LVJTQSBDQTAeFw0yMzA5MjQwMzE5MDlaFw0zMzA5MjEw
MzE5MDlaMBExDzANBgNVBAMMBnNlcnZlcjCCASIwDQYJKoZIhvcNAQEBBQADggEP
ADCCAQoCggEBALq8W4/CjswPlQhsVDrjQVNsiuXy9FeRCaCK9cCGINpb8yy36/IS
Iu0avUu0WRb2n42/8oZx0opFLcNkFyDrRn0u1wLtOoA8QxkoSgCGBS5892i+b++I
0kw+CUGZtlufuB09prz2FVdrj4bQlMoWx7QE7vlZBkPp8PS/Oj48Oe+4TJkRJTkY
clf48B6wI4wKkpPq0XB1vdiMWfvZmav/KRZTwFx3qhEIHz6AEPbxTuQ6xFEDalEj
vqPk7Ho5UMDxF0lVdirJHscOm50eyL0a1g0GS2O+l2VrbXtp7FhmNh9bexzgGZ1n
LMAPZ/iiqS4z8cwP0Tf3t1Zpk7efpFxZT4cCAwEAAaOBqjCBpzAJBgNVHRMEAjAA
MB0GA1UdDgQWBBSEslvyJ0yMk82GVw1VHCM74EQ7SjBGBgNVHSMEPzA9gBQYYQeZ
yYNK24HKw9oZnTQtt6QmbaEapBgwFjEUMBIGA1UEAwwLRWFzeS1SU0EgQ0GCCQCZ
TtP2nFdmTTATBgNVHSUEDDAKBggrBgEFBQcDATALBgNVHQ8EBAMCBaAwEQYDVR0R
BAowCIIGc2VydmVyMA0GCSqGSIb3DQEBCwUAA4IBAQB2e1zsCE2Im4iCtAe/seET
IYnYC0pnsKFdX5JjGlMGNHtjeLVzZQ1lPLJcZj9g7IRlsF7lZkXkkMJqmGVK1YJL
l5ow5ZJA3POM08g6DHl5haCSz9tdvG2z6NAqft09bUKCtSxU5XrOhC/I67zfBRFC
mckBSEP3tph+3VTdHZDOYckk/1HWbduVIuvZ8Z7gJl87hSMGeyjTlq8o0Xuq6UcG
xOqLr77ZKeBJYWZ3yQOf4G1xf8ezuOSIgLhL11Cl0JSWDokM2tDQrMpiViq7KJGA
FIGWpEmAJSuV8J02Epi88YLR+nWV63lXCt8q/ZEvvsta3XVJhJV/b7TjLwBasj5u
-----END CERTIFICATE-----
