Certificate:
    Data:
        Version: 3 (0x2)
        Serial Number:
            0a:a6:05:78:ef:fb:54:38:6e:3f:42:1c:f5:46:23:e2
    Signature Algorithm: sha256WithRSAEncryption
        Issuer: CN=Easy-RSA CA
        Validity
            Not Before: Sep 24 03:19:09 2023 GMT
            Not After : Sep 21 03:19:09 2033 GMT
        Subject: CN=jp
        Subject Public Key Info:
            Public Key Algorithm: rsaEncryption
                Public-Key: (2048 bit)
                Modulus:
                    00:bc:02:06:77:97:4e:88:ef:37:a8:d8:66:0a:06:
                    c5:cb:22:4f:2c:05:5b:b6:2f:0f:cd:22:f3:73:d2:
                    99:15:13:35:62:97:8f:4b:e3:ab:9a:61:f4:0a:a2:
                    0b:06:65:96:9d:e2:5b:c6:16:9c:ba:ce:5c:eb:4a:
                    3e:a2:5b:f8:2a:c8:04:d4:86:18:ab:4c:90:ce:fa:
                    1a:c5:82:e7:23:20:09:bc:d8:a0:9b:6c:8f:fa:bc:
                    ef:75:5f:d3:27:fb:dd:fb:08:fd:ed:a9:ab:1d:cc:
                    fc:c9:c6:81:62:31:8d:3a:a7:4e:86:18:0b:51:08:
                    0c:cf:13:64:3f:a9:e0:cc:69:84:e8:69:4e:5b:7e:
                    bc:6e:4a:eb:f2:05:04:65:0d:33:69:cc:4f:fa:44:
                    65:59:44:ef:62:3a:38:a8:f7:2e:09:25:55:22:f5:
                    5f:c4:15:a6:0a:f4:b9:df:c5:d7:40:58:e2:31:3b:
                    fa:5f:2d:d8:e8:33:0e:7e:bf:dc:27:53:cf:1e:e9:
                    48:90:7f:b0:16:40:c8:db:84:a2:59:9d:08:3a:6f:
                    3b:be:60:2f:ee:72:8b:0a:67:2b:2c:90:98:74:83:
                    f5:ad:50:2e:df:d5:bb:5f:14:63:de:b4:45:9d:0c:
                    74:2c:c9:6b:31:fe:1b:8d:3c:b2:eb:82:3f:f3:75:
                    60:b5
                Exponent: 65537 (0x10001)
        X509v3 extensions:
            X509v3 Basic Constraints: 
                CA:FALSE
            X509v3 Subject Key Identifier: 
                59:93:BB:FE:2B:94:17:24:4A:A9:E5:43:0E:BD:AB:DE:33:35:81:2B
            X509v3 Authority Key Identifier: 
                keyid:18:61:07:99:C9:83:4A:DB:81:CA:C3:DA:19:9D:34:2D:B7:A4:26:6D
                DirName:/CN=Easy-RSA CA
                serial:99:4E:D3:F6:9C:57:66:4D

            X509v3 Extended Key Usage: 
                TLS Web Client Authentication
            X509v3 Key Usage: 
                Digital Signature
    Signature Algorithm: sha256WithRSAEncryption
         7f:97:ba:32:15:3d:4e:14:94:7f:6e:94:4e:d4:3a:ba:f6:63:
         bc:70:9f:45:19:70:91:dd:c9:ee:62:59:d6:5f:e8:17:f0:35:
         57:6e:b6:4d:9f:4e:a6:7f:41:53:a2:00:c2:3f:d8:cb:81:e7:
         b6:29:1f:82:21:d8:d1:ea:cb:ee:8d:f2:d6:1b:4e:36:97:81:
         ac:47:d6:f4:d5:2a:5b:d9:7f:b3:e8:e4:da:0e:78:e4:e8:f4:
         e7:7a:7f:16:26:3c:79:04:a5:cc:d1:b5:22:91:87:b4:ab:2a:
         2d:f9:be:8f:f9:06:9e:ba:1d:b2:42:b0:51:57:89:cb:dc:d4:
         f7:20:ef:bc:2e:f5:64:c4:77:6d:8f:d1:36:9c:a0:e7:f4:ba:
         27:de:40:81:f6:7e:1c:7d:77:99:cd:ee:90:6c:8c:16:96:55:
         f4:3b:3e:d1:cf:4d:bb:3a:3e:fa:32:24:5a:67:d6:6d:c1:eb:
         57:a1:58:82:66:1f:45:70:2e:c3:c0:52:57:02:4e:85:ab:6b:
         9b:cc:e2:19:7d:c2:56:b5:ee:27:6a:95:a5:26:62:be:25:c3:
         86:e0:8a:9b:01:b7:c6:6f:fa:13:e2:79:46:c6:21:c5:87:e3:
         eb:be:c5:a7:2f:5f:f2:81:8b:62:3d:4b:5f:06:51:94:9d:c1:
         0b:8b:81:11
-----BEGIN CERTIFICATE-----
MIIDRTCCAi2gAwIBAgIQCqYFeO/7VDhuP0Ic9UYj4jANBgkqhkiG9w0BAQsFADAW
MRQwEgYDVQQDDAtFYXN5LVJTQSBDQTAeFw0yMzA5MjQwMzE5MDlaFw0zMzA5MjEw
MzE5MDlaMA0xCzAJBgNVBAMMAmpwMIIBIjANBgkqhkiG9w0BAQEFAAOCAQ8AMIIB
CgKCAQEAvAIGd5dOiO83qNhmCgbFyyJPLAVbti8PzSLzc9KZFRM1YpePS+OrmmH0
CqILBmWWneJbxhacus5c60o+olv4KsgE1IYYq0yQzvoaxYLnIyAJvNigm2yP+rzv
dV/TJ/vd+wj97amrHcz8ycaBYjGNOqdOhhgLUQgMzxNkP6ngzGmE6GlOW368bkrr
8gUEZQ0zacxP+kRlWUTvYjo4qPcuCSVVIvVfxBWmCvS538XXQFjiMTv6Xy3Y6DMO
fr/cJ1PPHulIkH+wFkDI24SiWZ0IOm87vmAv7nKLCmcrLJCYdIP1rVAu39W7XxRj
3rRFnQx0LMlrMf4bjTyy64I/83VgtQIDAQABo4GXMIGUMAkGA1UdEwQCMAAwHQYD
VR0OBBYEFFmTu/4rlBckSqnlQw69q94zNYErMEYGA1UdIwQ/MD2AFBhhB5nJg0rb
gcrD2hmdNC23pCZtoRqkGDAWMRQwEgYDVQQDDAtFYXN5LVJTQSBDQYIJAJlO0/ac
V2ZNMBMGA1UdJQQMMAoGCCsGAQUFBwMCMAsGA1UdDwQEAwIHgDANBgkqhkiG9w0B
AQsFAAOCAQEAf5e6MhU9ThSUf26UTtQ6uvZjvHCfRRlwkd3J7mJZ1l/oF/A1V262
TZ9Opn9BU6IAwj/Yy4HntikfgiHY0erL7o3y1htONpeBrEfW9NUqW9l/s+jk2g54
5Oj053p/FiY8eQSlzNG1IpGHtKsqLfm+j/kGnrodskKwUVeJy9zU9yDvvC71ZMR3
bY/RNpyg5/S6J95AgfZ+HH13mc3ukGyMFpZV9Ds+0c9Nuzo++jIkWmfWbcHrV6FY
gmYfRXAuw8BSVwJOhatrm8ziGX3CVrXuJ2qVpSZiviXDhuCKmwG3xm/6E+J5RsYh
xYfj677Fpy9f8oGLYj1LXwZRlJ3BC4uBEQ==
-----END CERTIFICATE-----
