Certificate:
    Data:
        Version: 3 (0x2)
        Serial Number:
            10:5f:9a:52:11:48:a4:99:36:e1:90:19:b4:d9:90:21
        Signature Algorithm: sha256WithRSAEncryption
        Issuer: CN=Easy-RSA CA
        Validity
            Not Before: Apr  6 09:09:46 2023 GMT
            Not After : Apr  3 09:09:46 2033 GMT
        Subject: CN=server
        Subject Public Key Info:
            Public Key Algorithm: rsaEncryption
                RSA Public-Key: (2048 bit)
                Modulus:
                    00:d6:d7:96:ee:22:7d:00:26:e1:90:20:99:2e:07:
                    03:ba:d0:e2:97:19:83:78:85:ea:1f:b5:eb:ac:fa:
                    b5:e2:74:79:0f:95:f6:d3:82:ae:7f:b7:04:c7:4b:
                    15:04:5e:86:8c:12:78:87:73:fb:12:a6:78:80:d4:
                    5d:50:4d:6f:b1:10:22:64:60:5b:fc:ca:83:ce:99:
                    74:31:79:9e:25:1c:34:1a:18:42:82:83:df:e5:6c:
                    e5:23:6f:a5:2f:da:50:14:84:75:fe:d3:db:06:47:
                    bd:fb:fa:c0:c1:a4:53:5e:8e:fc:db:4c:d1:8a:81:
                    53:d6:5a:c5:ff:e8:28:3d:44:68:c7:ee:41:2f:8b:
                    d3:25:80:9d:95:36:29:ad:4d:09:a5:05:2b:44:0a:
                    24:b6:5f:2e:0a:f1:9f:11:1b:03:03:a2:3c:3a:8f:
                    41:4e:14:2e:18:f5:1c:2e:b0:f8:12:fd:78:d0:20:
                    f6:7e:77:6c:de:84:93:9b:ef:d9:cf:f7:8e:11:a3:
                    a0:41:59:52:28:1c:a4:40:2e:3e:68:8b:83:21:8b:
                    b6:63:f6:9e:51:51:43:58:ab:c7:90:d4:d3:f3:98:
                    0c:6d:69:63:f2:9a:56:f1:62:6a:db:ee:3a:e2:ef:
                    2f:6a:81:2e:6e:75:61:ea:46:25:84:35:22:9e:4a:
                    f0:d1
                Exponent: 65537 (0x10001)
        X509v3 extensions:
            X509v3 Basic Constraints: 
                CA:FALSE
            X509v3 Subject Key Identifier: 
                A1:0C:0D:5B:A2:04:06:81:A1:98:7E:51:CE:DA:17:0F:93:32:DE:E9
            X509v3 Authority Key Identifier: 
                keyid:DB:1B:69:B8:5C:6D:A9:49:1A:B8:78:A2:77:EF:5E:3A:A9:49:DB:3C
                DirName:/CN=Easy-RSA CA
                serial:63:D9:23:AD:75:FD:E1:A7:96:29:4B:C6:CD:48:47:42:71:AD:DB:01

            X509v3 Extended Key Usage: 
                TLS Web Server Authentication
            X509v3 Key Usage: 
                Digital Signature, Key Encipherment
            X509v3 Subject Alternative Name: 
                DNS:server
    Signature Algorithm: sha256WithRSAEncryption
         a7:14:e2:ed:74:7d:7c:1c:cc:f9:63:23:76:99:24:79:43:7f:
         39:f5:fd:80:9a:dd:03:57:ff:b0:07:70:f7:30:de:93:e3:3b:
         da:c6:15:2c:dc:35:ec:fb:6e:13:2b:45:cb:d3:eb:2d:b0:cf:
         11:b8:6b:e4:55:13:19:16:c3:33:16:5d:75:37:68:7b:e5:d4:
         24:91:9b:9f:17:06:34:66:4e:db:f7:c2:8f:24:9c:e1:26:9f:
         a8:03:ba:91:6d:99:dd:96:9f:9c:5f:74:47:c1:62:27:ab:c2:
         e7:b9:c7:45:dd:18:16:40:d6:c3:91:53:6f:3d:29:4c:02:82:
         88:9c:7d:44:90:dc:58:13:27:f8:83:da:68:96:78:70:a4:7c:
         df:8f:e5:ad:15:28:41:7e:3a:da:63:fa:06:fe:cd:f9:2e:83:
         1c:39:17:d6:cf:99:23:75:01:aa:03:8f:6c:83:60:28:16:39:
         16:be:d8:86:d6:d0:d8:d9:48:b2:d5:7c:21:49:52:12:17:bc:
         a3:c8:1c:e5:b1:3a:c6:09:ca:a8:95:50:85:1c:35:ec:bb:2e:
         26:d0:60:ad:fb:85:b2:a4:cb:4c:76:76:ac:1e:f8:26:05:d1:
         b4:d5:7b:e8:83:fe:8c:76:f6:df:5c:92:75:46:7c:fc:b4:81:
         61:26:9c:64
-----BEGIN CERTIFICATE-----
MIIDZzCCAk+gAwIBAgIQEF+aUhFIpJk24ZAZtNmQITANBgkqhkiG9w0BAQsFADAW
MRQwEgYDVQQDDAtFYXN5LVJTQSBDQTAeFw0yMzA0MDYwOTA5NDZaFw0zMzA0MDMw
OTA5NDZaMBExDzANBgNVBAMMBnNlcnZlcjCCASIwDQYJKoZIhvcNAQEBBQADggEP
ADCCAQoCggEBANbXlu4ifQAm4ZAgmS4HA7rQ4pcZg3iF6h+166z6teJ0eQ+V9tOC
rn+3BMdLFQRehowSeIdz+xKmeIDUXVBNb7EQImRgW/zKg86ZdDF5niUcNBoYQoKD
3+Vs5SNvpS/aUBSEdf7T2wZHvfv6wMGkU16O/NtM0YqBU9Zaxf/oKD1EaMfuQS+L
0yWAnZU2Ka1NCaUFK0QKJLZfLgrxnxEbAwOiPDqPQU4ULhj1HC6w+BL9eNAg9n53
bN6Ek5vv2c/3jhGjoEFZUigcpEAuPmiLgyGLtmP2nlFRQ1irx5DU0/OYDG1pY/Ka
VvFiatvuOuLvL2qBLm51YepGJYQ1Ip5K8NECAwEAAaOBtTCBsjAJBgNVHRMEAjAA
MB0GA1UdDgQWBBShDA1bogQGgaGYflHO2hcPkzLe6TBRBgNVHSMESjBIgBTbG2m4
XG2pSRq4eKJ37146qUnbPKEapBgwFjEUMBIGA1UEAwwLRWFzeS1SU0EgQ0GCFGPZ
I611/eGnlilLxs1IR0JxrdsBMBMGA1UdJQQMMAoGCCsGAQUFBwMBMAsGA1UdDwQE
AwIFoDARBgNVHREECjAIggZzZXJ2ZXIwDQYJKoZIhvcNAQELBQADggEBAKcU4u10
fXwczPljI3aZJHlDfzn1/YCa3QNX/7AHcPcw3pPjO9rGFSzcNez7bhMrRcvT6y2w
zxG4a+RVExkWwzMWXXU3aHvl1CSRm58XBjRmTtv3wo8knOEmn6gDupFtmd2Wn5xf
dEfBYierwue5x0XdGBZA1sORU289KUwCgoicfUSQ3FgTJ/iD2miWeHCkfN+P5a0V
KEF+Otpj+gb+zfkugxw5F9bPmSN1AaoDj2yDYCgWORa+2IbW0NjZSLLVfCFJUhIX
vKPIHOWxOsYJyqiVUIUcNey7LibQYK37hbKky0x2dqwe+CYF0bTVe+iD/ox29t9c
knVGfPy0gWEmnGQ=
-----END CERTIFICATE-----
