Certificate:
    Data:
        Version: 3 (0x2)
        Serial Number:
            27:ff:03:61:86:a9:96:ec:38:ae:59:b6:42:4d:d2:58
    Signature Algorithm: sha256WithRSAEncryption
        Issuer: CN=Easy-RSA CA
        Validity
            Not Before: Sep 24 09:52:27 2023 GMT
            Not After : Sep 21 09:52:27 2033 GMT
        Subject: CN=jp
        Subject Public Key Info:
            Public Key Algorithm: rsaEncryption
                Public-Key: (2048 bit)
                Modulus:
                    00:cf:a1:b6:31:3c:53:ea:3f:0f:6a:8f:46:65:0d:
                    60:56:2c:e5:31:ad:5c:cf:21:ce:e9:6b:2e:a7:fc:
                    bc:12:92:9e:a7:18:2a:63:45:58:20:10:26:21:96:
                    f8:b0:00:ac:ee:ca:3e:58:5e:fe:f2:4b:63:dc:6b:
                    b1:4d:9d:02:d2:b3:f8:80:ca:46:62:6b:b8:3b:5a:
                    92:65:79:38:af:2c:07:39:4a:e2:ce:7c:2d:db:b0:
                    8d:e8:a1:22:a5:57:4a:46:93:49:c0:43:3f:d0:65:
                    61:5f:ac:ed:b7:46:8e:1d:4c:0b:6e:c4:34:eb:7e:
                    0c:33:de:05:4b:9c:bd:7f:81:cc:42:bd:02:0d:a3:
                    60:0b:bb:46:c8:f2:10:27:53:b5:d2:48:be:98:fa:
                    1c:dc:f0:a0:71:50:f4:9e:47:75:ba:2c:5d:90:02:
                    54:c6:63:a7:89:10:52:00:18:24:90:ad:68:ac:e8:
                    11:58:2e:87:20:27:d1:b8:dc:97:2c:7e:66:fb:61:
                    96:94:c9:7a:9e:62:a9:cd:48:e7:62:2a:81:14:fa:
                    6a:a6:39:1d:b1:f9:b3:94:4a:7a:a2:52:58:48:f6:
                    7b:66:ed:dd:e5:bc:d3:b1:f1:c4:f0:8f:a2:99:2a:
                    91:cb:2f:d2:4c:6f:6f:79:b5:6f:6d:fe:ae:0e:1b:
                    17:4d
                Exponent: 65537 (0x10001)
        X509v3 extensions:
            X509v3 Basic Constraints: 
                CA:FALSE
            X509v3 Subject Key Identifier: 
                AC:39:54:7E:84:6A:0E:0A:36:9E:CE:26:09:BE:7E:E2:F7:74:E1:51
            X509v3 Authority Key Identifier: 
                keyid:90:D5:2A:1D:3E:42:1D:9E:93:17:9D:56:D8:F6:29:4B:73:5C:7D:8E
                DirName:/CN=Easy-RSA CA
                serial:AD:AE:87:83:B2:1F:6E:67

            X509v3 Extended Key Usage: 
                TLS Web Client Authentication
            X509v3 Key Usage: 
                Digital Signature
    Signature Algorithm: sha256WithRSAEncryption
         5e:62:49:ae:15:2e:57:21:6a:19:e6:19:12:86:a3:88:45:e5:
         e7:45:d8:11:fe:01:bb:25:28:32:c5:89:0a:7e:0b:8c:5b:85:
         e5:39:82:68:e8:23:ba:ef:14:ff:db:3c:9f:c3:d5:f7:3a:0f:
         91:25:d9:47:22:62:28:96:03:d1:99:2c:c6:f3:1c:24:78:c7:
         54:bf:41:49:cc:4f:46:94:a2:0f:48:0e:49:cc:1c:df:24:04:
         d3:0f:71:f1:d4:9d:57:83:2e:a1:3e:15:0f:39:52:32:a1:0b:
         6a:62:a4:36:e4:11:c4:da:3a:08:36:ac:44:c0:2f:6f:f6:fc:
         7e:49:45:83:87:91:39:57:eb:94:54:ca:d9:72:ca:31:c7:4c:
         ee:9f:1e:46:df:21:7e:40:9f:69:f9:f6:82:27:53:b5:46:cf:
         b9:66:a1:3f:95:0c:49:d5:fc:15:40:2f:f2:90:f9:ff:a7:a5:
         d2:b7:fc:77:1e:94:00:2b:ef:1d:93:17:f1:2d:6e:e2:6a:de:
         dc:3b:c4:1d:c0:d3:c3:20:fe:5b:5e:a8:f1:99:c9:1a:c4:61:
         fe:ea:d4:eb:8f:74:3a:93:50:89:3c:88:9c:f3:e2:f6:66:e4:
         93:53:42:f8:f7:c7:93:ff:c4:b3:92:e3:08:5e:15:f5:91:ef:
         b8:41:9d:f6
-----BEGIN CERTIFICATE-----
MIIDRTCCAi2gAwIBAgIQJ/8DYYapluw4rlm2Qk3SWDANBgkqhkiG9w0BAQsFADAW
MRQwEgYDVQQDDAtFYXN5LVJTQSBDQTAeFw0yMzA5MjQwOTUyMjdaFw0zMzA5MjEw
OTUyMjdaMA0xCzAJBgNVBAMMAmpwMIIBIjANBgkqhkiG9w0BAQEFAAOCAQ8AMIIB
CgKCAQEAz6G2MTxT6j8Pao9GZQ1gVizlMa1czyHO6Wsup/y8EpKepxgqY0VYIBAm
IZb4sACs7so+WF7+8ktj3GuxTZ0C0rP4gMpGYmu4O1qSZXk4rywHOUriznwt27CN
6KEipVdKRpNJwEM/0GVhX6ztt0aOHUwLbsQ0634MM94FS5y9f4HMQr0CDaNgC7tG
yPIQJ1O10ki+mPoc3PCgcVD0nkd1uixdkAJUxmOniRBSABgkkK1orOgRWC6HICfR
uNyXLH5m+2GWlMl6nmKpzUjnYiqBFPpqpjkdsfmzlEp6olJYSPZ7Zu3d5bzTsfHE
8I+imSqRyy/STG9vebVvbf6uDhsXTQIDAQABo4GXMIGUMAkGA1UdEwQCMAAwHQYD
VR0OBBYEFKw5VH6Eag4KNp7OJgm+fuL3dOFRMEYGA1UdIwQ/MD2AFJDVKh0+Qh2e
kxedVtj2KUtzXH2OoRqkGDAWMRQwEgYDVQQDDAtFYXN5LVJTQSBDQYIJAK2uh4Oy
H25nMBMGA1UdJQQMMAoGCCsGAQUFBwMCMAsGA1UdDwQEAwIHgDANBgkqhkiG9w0B
AQsFAAOCAQEAXmJJrhUuVyFqGeYZEoajiEXl50XYEf4BuyUoMsWJCn4LjFuF5TmC
aOgjuu8U/9s8n8PV9zoPkSXZRyJiKJYD0ZksxvMcJHjHVL9BScxPRpSiD0gOScwc
3yQE0w9x8dSdV4MuoT4VDzlSMqELamKkNuQRxNo6CDasRMAvb/b8fklFg4eROVfr
lFTK2XLKMcdM7p8eRt8hfkCfafn2gidTtUbPuWahP5UMSdX8FUAv8pD5/6el0rf8
dx6UACvvHZMX8S1u4mre3DvEHcDTwyD+W16o8ZnJGsRh/urU6490OpNQiTyInPPi
9mbkk1NC+PfHk//Es5LjCF4V9ZHvuEGd9g==
-----END CERTIFICATE-----
