Certificate:
    Data:
        Version: 3 (0x2)
        Serial Number:
            28:bf:c4:76:67:d8:38:75:bf:4b:a5:4f:ac:6f:7d:63
    Signature Algorithm: sha256WithRSAEncryption
        Issuer: CN=Easy-RSA CA
        Validity
            Not Before: Apr 12 05:42:52 2023 GMT
            Not After : Apr  9 05:42:52 2033 GMT
        Subject: CN=server
        Subject Public Key Info:
            Public Key Algorithm: rsaEncryption
                Public-Key: (2048 bit)
                Modulus:
                    00:c0:ed:05:4a:b8:4e:50:b6:1b:54:59:0d:f5:5f:
                    22:6e:39:ed:9a:e8:71:94:e8:31:bf:e3:04:ea:3a:
                    01:88:9b:a5:37:95:b5:cc:6f:43:41:b1:77:a0:c6:
                    95:fd:f6:96:45:5f:16:c8:56:7d:46:8b:be:a5:af:
                    16:45:47:32:26:b9:2f:37:da:36:7c:65:49:b4:ae:
                    a0:c7:d2:23:c8:31:c8:a5:4b:a0:f9:4d:2d:02:3e:
                    5d:27:08:9e:31:11:52:60:88:70:e3:15:65:f3:bf:
                    1c:2b:6a:a1:ef:21:7c:7f:21:88:09:77:79:34:bc:
                    5d:3a:44:2c:7e:a7:7c:71:ae:8e:fd:26:39:6c:25:
                    42:e3:55:07:ef:02:94:5f:e2:0a:6b:f5:14:ce:f5:
                    d2:7e:d6:64:26:b3:fe:69:d8:8d:bd:53:b0:a6:3b:
                    53:7c:3a:cd:31:c6:7a:d8:89:e9:8f:4e:66:c5:bc:
                    cd:5c:df:71:54:bc:57:62:fa:a3:d8:c3:18:5b:5d:
                    87:6f:23:d3:d4:b9:15:c0:e2:0a:4c:ef:6a:ff:60:
                    20:64:88:6f:1e:97:a6:37:a9:e6:9a:86:0d:ab:34:
                    7a:e8:bd:35:9b:32:29:ea:04:c1:17:17:bb:74:01:
                    38:d7:b3:23:52:0d:fd:1c:d4:ec:7f:0e:d7:9e:eb:
                    1d:35
                Exponent: 65537 (0x10001)
        X509v3 extensions:
            X509v3 Basic Constraints: 
                CA:FALSE
            X509v3 Subject Key Identifier: 
                DD:DD:A6:BF:7B:A1:EE:66:6A:AE:44:9B:7C:B9:82:87:F4:E5:CA:15
            X509v3 Authority Key Identifier: 
                keyid:43:C1:CD:E4:0E:F1:45:24:90:EE:69:A5:34:51:D6:A9:FE:EF:80:2A
                DirName:/CN=Easy-RSA CA
                serial:ED:6E:CE:A8:C1:1F:67:99

            X509v3 Extended Key Usage: 
                TLS Web Server Authentication
            X509v3 Key Usage: 
                Digital Signature, Key Encipherment
            X509v3 Subject Alternative Name: 
                DNS:server
    Signature Algorithm: sha256WithRSAEncryption
         01:3d:ca:4c:bb:a7:33:7c:73:07:33:b7:b6:55:b8:d7:87:e1:
         e5:9a:f0:cb:0f:79:db:ce:f9:00:02:43:d1:e5:ba:ed:7b:5b:
         4a:72:79:a9:d5:35:df:23:66:10:8d:88:74:ad:1c:01:0c:76:
         d6:d5:c3:ec:c1:b3:3c:a1:11:72:8f:d7:ed:0d:f1:c5:ca:d1:
         65:f7:2b:13:bd:69:6d:95:16:fa:99:6d:b5:1c:5f:5f:68:b3:
         24:e4:53:03:04:b1:a2:67:6e:d6:70:d8:f8:9d:d3:dc:f1:7f:
         62:8f:20:96:96:03:57:8f:65:64:7f:65:53:d0:6b:8c:1b:41:
         06:31:50:d3:ee:b6:6f:e0:ae:16:f1:dc:28:3e:33:b6:af:b5:
         5d:10:44:64:f8:a6:25:77:d3:ff:cd:4e:ec:c9:65:89:1d:08:
         de:1f:54:c0:94:84:3a:14:97:5e:7b:a7:6d:a3:04:7d:8e:03:
         be:e7:14:8e:b2:1f:a5:c1:92:ab:70:7a:77:ba:8a:73:c0:aa:
         3e:8b:82:33:90:b7:b8:14:73:f6:e1:ef:02:de:15:29:27:32:
         e6:1a:e1:23:c6:1b:db:8a:da:06:1a:c7:e5:d2:f2:71:fc:88:
         f9:68:c4:da:0a:76:1d:aa:6f:d0:12:ed:ae:31:91:b2:ff:90:
         14:4f:e3:4e
-----BEGIN CERTIFICATE-----
MIIDXDCCAkSgAwIBAgIQKL/EdmfYOHW/S6VPrG99YzANBgkqhkiG9w0BAQsFADAW
MRQwEgYDVQQDDAtFYXN5LVJTQSBDQTAeFw0yMzA0MTIwNTQyNTJaFw0zMzA0MDkw
NTQyNTJaMBExDzANBgNVBAMMBnNlcnZlcjCCASIwDQYJKoZIhvcNAQEBBQADggEP
ADCCAQoCggEBAMDtBUq4TlC2G1RZDfVfIm457ZrocZToMb/jBOo6AYibpTeVtcxv
Q0Gxd6DGlf32lkVfFshWfUaLvqWvFkVHMia5LzfaNnxlSbSuoMfSI8gxyKVLoPlN
LQI+XScInjERUmCIcOMVZfO/HCtqoe8hfH8hiAl3eTS8XTpELH6nfHGujv0mOWwl
QuNVB+8ClF/iCmv1FM710n7WZCaz/mnYjb1TsKY7U3w6zTHGetiJ6Y9OZsW8zVzf
cVS8V2L6o9jDGFtdh28j09S5FcDiCkzvav9gIGSIbx6Xpjep5pqGDas0eui9NZsy
KeoEwRcXu3QBONezI1IN/RzU7H8O157rHTUCAwEAAaOBqjCBpzAJBgNVHRMEAjAA
MB0GA1UdDgQWBBTd3aa/e6HuZmquRJt8uYKH9OXKFTBGBgNVHSMEPzA9gBRDwc3k
DvFFJJDuaaU0Udap/u+AKqEapBgwFjEUMBIGA1UEAwwLRWFzeS1SU0EgQ0GCCQDt
bs6owR9nmTATBgNVHSUEDDAKBggrBgEFBQcDATALBgNVHQ8EBAMCBaAwEQYDVR0R
BAowCIIGc2VydmVyMA0GCSqGSIb3DQEBCwUAA4IBAQABPcpMu6czfHMHM7e2VbjX
h+HlmvDLD3nbzvkAAkPR5brte1tKcnmp1TXfI2YQjYh0rRwBDHbW1cPswbM8oRFy
j9ftDfHFytFl9ysTvWltlRb6mW21HF9faLMk5FMDBLGiZ27WcNj4ndPc8X9ijyCW
lgNXj2Vkf2VT0GuMG0EGMVDT7rZv4K4W8dwoPjO2r7VdEERk+KYld9P/zU7syWWJ
HQjeH1TAlIQ6FJdee6dtowR9jgO+5xSOsh+lwZKrcHp3uopzwKo+i4IzkLe4FHP2
4e8C3hUpJzLmGuEjxhvbitoGGsfl0vJx/Ij5aMTaCnYdqm/QEu2uMZGy/5AUT+NO
-----END CERTIFICATE-----
