Certificate:
    Data:
        Version: 3 (0x2)
        Serial Number:
            4a:73:8c:63:df:19:d8:89:ef:6f:ac:e6:f3:4f:7e:dc
    Signature Algorithm: sha256WithRSAEncryption
        Issuer: CN=Easy-RSA CA
        Validity
            Not Before: Jul 14 18:00:25 2023 GMT
            Not After : Jul 11 18:00:25 2033 GMT
        Subject: CN=jp
        Subject Public Key Info:
            Public Key Algorithm: rsaEncryption
                Public-Key: (2048 bit)
                Modulus:
                    00:f0:fe:66:c5:e1:fb:34:0f:af:ed:8a:f4:d5:71:
                    c8:4a:b9:ef:65:10:bb:2c:9d:bc:b3:18:b9:c0:7c:
                    e7:32:78:c4:ed:38:91:2d:d3:38:11:04:62:08:08:
                    cb:e0:29:5d:79:70:f3:93:6b:6a:d3:85:17:76:1e:
                    87:6f:4c:e3:d1:23:31:f0:21:d9:e5:e6:65:a6:62:
                    5b:62:2a:a3:84:0d:31:5a:a4:2b:9d:30:0c:3f:77:
                    8a:f5:51:2d:00:cd:87:ca:39:ba:49:18:9d:39:db:
                    48:62:f3:e0:81:40:4f:7e:de:d4:33:7f:23:d4:44:
                    6a:7d:e6:98:bc:06:c3:b2:6e:4b:95:c0:15:a6:16:
                    1b:f7:98:e0:4c:de:e9:62:b3:43:e4:36:1b:ee:54:
                    7e:91:bb:b9:8b:05:8f:aa:44:20:75:18:81:ee:d4:
                    92:71:cc:58:60:4d:8d:01:6a:3a:3e:62:8b:3d:85:
                    9b:6e:7b:6c:97:55:43:d3:00:4b:26:eb:d1:48:0b:
                    9f:8d:89:32:9f:a0:96:45:98:a3:fb:64:55:9f:8c:
                    2c:9a:fb:d6:d2:09:8d:51:97:a4:ac:51:c2:d9:13:
                    12:75:cb:cb:af:c1:e6:d1:db:f8:1d:7d:b1:6a:99:
                    d4:59:74:fe:eb:67:e2:6d:fc:a3:a5:04:05:76:d3:
                    c8:39
                Exponent: 65537 (0x10001)
        X509v3 extensions:
            X509v3 Basic Constraints: 
                CA:FALSE
            X509v3 Subject Key Identifier: 
                22:D4:63:C0:60:FB:0D:C9:8A:8C:D8:EA:A8:3A:11:E6:8C:33:BD:C6
            X509v3 Authority Key Identifier: 
                keyid:DB:C3:5E:65:AA:2E:B4:DE:F9:10:52:94:49:61:78:43:8E:E6:7C:11
                DirName:/CN=Easy-RSA CA
                serial:A6:C5:E9:C6:36:E5:6E:5B

            X509v3 Extended Key Usage: 
                TLS Web Client Authentication
            X509v3 Key Usage: 
                Digital Signature
    Signature Algorithm: sha256WithRSAEncryption
         78:d5:d2:6a:0e:79:b7:e7:cb:06:4f:25:e7:c5:e9:f4:15:35:
         80:58:dc:4f:e2:ae:86:ec:d0:34:8d:04:8b:c9:37:e6:de:71:
         54:3a:03:c5:9a:67:3c:61:35:28:d0:d1:ee:11:86:3c:f4:4d:
         3d:09:b7:0b:4d:a2:b1:9f:a4:6d:23:29:a4:f2:c2:fb:e2:e9:
         92:1d:d3:6b:25:4c:f6:f5:a7:20:88:2e:6d:d0:50:38:19:ac:
         f1:5f:5e:25:06:59:aa:42:89:82:44:2f:ab:33:c0:45:7b:45:
         ba:5d:ef:72:e7:0a:b7:22:19:32:9e:5e:13:03:6c:0e:2a:fa:
         fa:ad:f0:f7:db:b1:c0:5e:ae:07:c3:9d:9f:c0:81:fa:75:e3:
         8d:75:c9:0c:9a:12:fe:4c:e6:e1:f7:42:55:6d:8e:66:e1:4d:
         6a:5f:34:79:99:ea:ce:a9:c8:fe:81:bf:63:17:7b:df:36:7f:
         86:84:96:c1:5d:fd:c5:52:5f:3d:48:b3:e2:2b:64:0c:dd:bc:
         0b:ad:d6:66:4e:b7:a4:a8:ec:4d:41:a7:82:b2:aa:2b:05:e8:
         1f:a9:38:3e:41:7f:84:6f:4e:5d:94:da:0c:c4:e8:c5:e2:a1:
         27:3a:2c:42:f7:cb:9f:2c:6f:a9:1e:69:86:49:3d:d6:dd:c6:
         9c:a9:a6:a0
-----BEGIN CERTIFICATE-----
MIIDRTCCAi2gAwIBAgIQSnOMY98Z2Invb6zm809+3DANBgkqhkiG9w0BAQsFADAW
MRQwEgYDVQQDDAtFYXN5LVJTQSBDQTAeFw0yMzA3MTQxODAwMjVaFw0zMzA3MTEx
ODAwMjVaMA0xCzAJBgNVBAMMAmpwMIIBIjANBgkqhkiG9w0BAQEFAAOCAQ8AMIIB
CgKCAQEA8P5mxeH7NA+v7Yr01XHISrnvZRC7LJ28sxi5wHznMnjE7TiRLdM4EQRi
CAjL4CldeXDzk2tq04UXdh6Hb0zj0SMx8CHZ5eZlpmJbYiqjhA0xWqQrnTAMP3eK
9VEtAM2Hyjm6SRidOdtIYvPggUBPft7UM38j1ERqfeaYvAbDsm5LlcAVphYb95jg
TN7pYrND5DYb7lR+kbu5iwWPqkQgdRiB7tSSccxYYE2NAWo6PmKLPYWbbntsl1VD
0wBLJuvRSAufjYkyn6CWRZij+2RVn4wsmvvW0gmNUZekrFHC2RMSdcvLr8Hm0dv4
HX2xapnUWXT+62fibfyjpQQFdtPIOQIDAQABo4GXMIGUMAkGA1UdEwQCMAAwHQYD
VR0OBBYEFCLUY8Bg+w3JiozY6qg6EeaMM73GMEYGA1UdIwQ/MD2AFNvDXmWqLrTe
+RBSlElheEOO5nwRoRqkGDAWMRQwEgYDVQQDDAtFYXN5LVJTQSBDQYIJAKbF6cY2
5W5bMBMGA1UdJQQMMAoGCCsGAQUFBwMCMAsGA1UdDwQEAwIHgDANBgkqhkiG9w0B
AQsFAAOCAQEAeNXSag55t+fLBk8l58Xp9BU1gFjcT+KuhuzQNI0Ei8k35t5xVDoD
xZpnPGE1KNDR7hGGPPRNPQm3C02isZ+kbSMppPLC++Lpkh3TayVM9vWnIIgubdBQ
OBms8V9eJQZZqkKJgkQvqzPARXtFul3vcucKtyIZMp5eEwNsDir6+q3w99uxwF6u
B8Odn8CB+nXjjXXJDJoS/kzm4fdCVW2OZuFNal80eZnqzqnI/oG/Yxd73zZ/hoSW
wV39xVJfPUiz4itkDN28C63WZk63pKjsTUGngrKqKwXoH6k4PkF/hG9OXZTaDMTo
xeKhJzosQvfLnyxvqR5phkk91t3GnKmmoA==
-----END CERTIFICATE-----
