Certificate:
    Data:
        Version: 3 (0x2)
        Serial Number:
            70:54:71:cd:0d:f2:09:15:86:2a:97:73:7d:3c:ad:40
    Signature Algorithm: sha256WithRSAEncryption
        Issuer: CN=Easy-RSA CA
        Validity
            Not Before: Sep 24 09:52:27 2023 GMT
            Not After : Sep 21 09:52:27 2033 GMT
        Subject: CN=server
        Subject Public Key Info:
            Public Key Algorithm: rsaEncryption
                Public-Key: (2048 bit)
                Modulus:
                    00:c3:2b:8d:63:ca:1c:7d:15:50:fb:68:00:98:8b:
                    b5:a1:52:90:5b:02:40:1f:11:1b:75:79:a4:e3:95:
                    43:34:93:26:27:8f:5c:c7:3d:94:c1:98:b1:1d:4c:
                    2c:14:33:c2:75:9b:0c:63:ce:45:32:12:17:cb:29:
                    55:53:80:d6:48:5e:10:97:5c:81:1a:02:a1:ef:8c:
                    39:f5:b6:9a:e3:22:3b:f7:e0:14:be:f6:8d:ad:f5:
                    3b:75:ab:26:46:96:12:25:87:dc:d9:d3:83:69:34:
                    93:85:bb:7d:d0:20:f7:58:4d:85:ae:4e:0b:bc:1b:
                    d9:5d:4e:41:05:e7:c9:21:09:97:b5:7e:d4:6d:e7:
                    41:72:7d:84:98:ae:49:30:8b:36:fc:81:16:3d:06:
                    c6:df:54:40:39:85:6d:9d:df:fb:29:7a:54:96:81:
                    c9:3f:d3:b8:36:13:7b:d9:3c:c0:92:a5:8f:cf:da:
                    89:0f:b9:7e:24:e8:67:5a:64:25:37:85:6a:2d:2c:
                    19:e6:2e:2b:7c:d8:10:be:c2:1b:6c:2d:ce:f6:bd:
                    c1:91:62:89:2b:99:a5:4b:a6:49:d9:67:7b:44:2e:
                    a3:30:a1:a0:df:98:6c:14:7b:65:6c:37:91:e3:54:
                    40:48:66:d6:65:21:d3:52:77:03:11:2a:9d:44:a9:
                    f4:ab
                Exponent: 65537 (0x10001)
        X509v3 extensions:
            X509v3 Basic Constraints: 
                CA:FALSE
            X509v3 Subject Key Identifier: 
                88:82:70:A0:CB:94:08:52:C0:AA:AA:01:54:D1:5C:5E:A6:98:35:85
            X509v3 Authority Key Identifier: 
                keyid:90:D5:2A:1D:3E:42:1D:9E:93:17:9D:56:D8:F6:29:4B:73:5C:7D:8E
                DirName:/CN=Easy-RSA CA
                serial:AD:AE:87:83:B2:1F:6E:67

            X509v3 Extended Key Usage: 
                TLS Web Server Authentication
            X509v3 Key Usage: 
                Digital Signature, Key Encipherment
            X509v3 Subject Alternative Name: 
                DNS:server
    Signature Algorithm: sha256WithRSAEncryption
         df:67:9c:d1:ea:51:0c:fb:04:43:a1:d0:d3:a9:fd:0b:71:f4:
         c7:bd:fa:e3:c9:a5:83:f9:fb:58:a5:ff:53:69:c7:be:2c:6c:
         2b:ee:49:2e:73:86:98:d8:1f:d2:72:9f:fe:61:40:d4:3d:86:
         27:8a:1e:59:b9:66:0d:1d:e5:dc:c0:28:61:77:49:33:c5:07:
         ca:c6:70:ef:3b:44:83:85:5e:ad:ec:1f:a2:09:0b:13:ac:fd:
         06:f4:28:9e:3d:f7:3a:de:cd:4b:68:13:27:e9:ad:62:f3:2c:
         f2:24:fb:c4:5b:ef:74:db:a6:4d:58:f5:5f:ef:44:f2:2b:47:
         39:f7:ea:c4:a0:4d:d3:6c:af:2e:98:df:57:0e:31:6e:05:4d:
         bd:52:4f:be:fd:05:d0:a1:05:97:53:b0:55:9b:7d:35:fa:6a:
         00:05:80:6c:a8:8f:4a:b2:80:78:d5:70:b0:0a:e4:34:0b:eb:
         6d:18:a2:67:ba:47:de:c6:8f:b1:0a:3f:13:df:77:f2:49:90:
         a1:83:db:ad:1e:e7:9e:59:12:0d:62:07:5c:41:a7:3c:4b:ab:
         23:9e:2a:f8:55:ce:8e:fb:c5:32:54:b6:07:48:e5:5e:00:ee:
         d9:67:81:c5:06:1f:14:09:ce:5f:f8:7d:08:88:3b:e4:aa:6a:
         af:88:90:54
-----BEGIN CERTIFICATE-----
MIIDXDCCAkSgAwIBAgIQcFRxzQ3yCRWGKpdzfTytQDANBgkqhkiG9w0BAQsFADAW
MRQwEgYDVQQDDAtFYXN5LVJTQSBDQTAeFw0yMzA5MjQwOTUyMjdaFw0zMzA5MjEw
OTUyMjdaMBExDzANBgNVBAMMBnNlcnZlcjCCASIwDQYJKoZIhvcNAQEBBQADggEP
ADCCAQoCggEBAMMrjWPKHH0VUPtoAJiLtaFSkFsCQB8RG3V5pOOVQzSTJiePXMc9
lMGYsR1MLBQzwnWbDGPORTISF8spVVOA1kheEJdcgRoCoe+MOfW2muMiO/fgFL72
ja31O3WrJkaWEiWH3NnTg2k0k4W7fdAg91hNha5OC7wb2V1OQQXnySEJl7V+1G3n
QXJ9hJiuSTCLNvyBFj0Gxt9UQDmFbZ3f+yl6VJaByT/TuDYTe9k8wJKlj8/aiQ+5
fiToZ1pkJTeFai0sGeYuK3zYEL7CG2wtzva9wZFiiSuZpUumSdlne0QuozChoN+Y
bBR7ZWw3keNUQEhm1mUh01J3AxEqnUSp9KsCAwEAAaOBqjCBpzAJBgNVHRMEAjAA
MB0GA1UdDgQWBBSIgnCgy5QIUsCqqgFU0Vxeppg1hTBGBgNVHSMEPzA9gBSQ1Sod
PkIdnpMXnVbY9ilLc1x9jqEapBgwFjEUMBIGA1UEAwwLRWFzeS1SU0EgQ0GCCQCt
roeDsh9uZzATBgNVHSUEDDAKBggrBgEFBQcDATALBgNVHQ8EBAMCBaAwEQYDVR0R
BAowCIIGc2VydmVyMA0GCSqGSIb3DQEBCwUAA4IBAQDfZ5zR6lEM+wRDodDTqf0L
cfTHvfrjyaWD+ftYpf9Tace+LGwr7kkuc4aY2B/Scp/+YUDUPYYnih5ZuWYNHeXc
wChhd0kzxQfKxnDvO0SDhV6t7B+iCQsTrP0G9CiePfc63s1LaBMn6a1i8yzyJPvE
W+9026ZNWPVf70TyK0c59+rEoE3TbK8umN9XDjFuBU29Uk++/QXQoQWXU7BVm301
+moABYBsqI9KsoB41XCwCuQ0C+ttGKJnukfexo+xCj8T33fySZChg9utHueeWRIN
YgdcQac8S6sjnir4Vc6O+8UyVLYHSOVeAO7ZZ4HFBh8UCc5f+H0IiDvkqmqviJBU
-----END CERTIFICATE-----
