Certificate:
    Data:
        Version: 3 (0x2)
        Serial Number:
            76:ea:d3:28:a2:df:fd:f3:6e:36:8a:fe:df:03:06:40
    Signature Algorithm: sha256WithRSAEncryption
        Issuer: CN=Easy-RSA CA
        Validity
            Not Before: Jul 14 18:00:25 2023 GMT
            Not After : Jul 11 18:00:25 2033 GMT
        Subject: CN=server
        Subject Public Key Info:
            Public Key Algorithm: rsaEncryption
                Public-Key: (2048 bit)
                Modulus:
                    00:99:87:2c:ea:67:e1:00:34:2d:93:a0:4d:e8:5d:
                    81:8b:8a:9b:68:c1:8e:21:0b:b2:f4:d9:01:e1:ce:
                    23:a8:f8:a4:06:6a:67:63:7d:29:ed:4c:5a:c7:e1:
                    2a:1a:69:6c:87:e4:15:55:7d:05:a3:40:48:95:0a:
                    32:66:f8:e1:18:22:8e:2d:0f:20:4b:a0:a3:5c:6b:
                    c2:2c:70:cf:3a:5a:d9:25:0c:2a:29:09:1f:14:01:
                    08:14:44:a7:50:75:36:ee:14:8a:2b:d2:34:05:14:
                    5c:d1:90:7f:89:c5:e1:fc:63:47:d7:6c:1f:36:f2:
                    77:65:72:59:95:64:98:23:a9:bb:18:10:32:ed:c5:
                    fe:c7:a0:e5:b4:12:45:0f:08:2f:17:39:66:df:bf:
                    56:57:b5:8c:2a:18:33:9d:31:90:01:e8:c9:9d:9d:
                    95:ff:ae:08:3b:0c:51:77:ef:2b:e7:9f:0b:30:ec:
                    02:c6:5f:6f:f4:8b:ca:86:c1:6b:56:1c:f1:a3:2f:
                    53:62:df:00:41:78:b5:e0:43:7a:76:9c:26:1c:1b:
                    52:83:c9:95:83:dc:0a:b4:d7:6e:12:49:d7:d0:4b:
                    0a:9e:4c:38:f1:01:83:e6:a7:bf:10:91:a2:1d:96:
                    d0:b8:c6:f8:70:8f:24:4d:35:32:05:7f:a5:f9:ea:
                    01:51
                Exponent: 65537 (0x10001)
        X509v3 extensions:
            X509v3 Basic Constraints: 
                CA:FALSE
            X509v3 Subject Key Identifier: 
                8B:0D:6B:28:5F:FB:02:26:28:A7:6D:4F:81:42:66:4B:6A:92:8E:3E
            X509v3 Authority Key Identifier: 
                keyid:DB:C3:5E:65:AA:2E:B4:DE:F9:10:52:94:49:61:78:43:8E:E6:7C:11
                DirName:/CN=Easy-RSA CA
                serial:A6:C5:E9:C6:36:E5:6E:5B

            X509v3 Extended Key Usage: 
                TLS Web Server Authentication
            X509v3 Key Usage: 
                Digital Signature, Key Encipherment
            X509v3 Subject Alternative Name: 
                DNS:server
    Signature Algorithm: sha256WithRSAEncryption
         c4:32:31:ef:f1:88:3b:13:c8:fd:2b:c7:cc:75:10:bc:a4:b1:
         07:e6:98:7f:08:60:7d:c4:ee:65:fc:de:de:e4:c7:ce:f5:c7:
         c5:2f:25:07:a1:8f:9f:48:14:e8:ff:04:ec:b3:60:da:0c:31:
         23:d5:b8:e2:13:c7:9b:6c:ad:a0:93:a8:13:8d:a7:74:16:5b:
         1e:66:41:4a:f9:17:ca:87:5d:69:22:66:06:ba:be:9f:5d:79:
         f8:56:c7:86:ef:22:67:d0:1a:e9:a5:f7:df:43:f2:5d:ad:a4:
         31:a8:70:5d:34:36:75:50:93:27:4d:c6:70:b2:83:21:63:a3:
         67:ab:73:84:cc:2a:ed:3c:2e:84:42:f2:26:fa:4f:79:1e:9d:
         64:4c:86:ff:ba:07:43:78:5d:a2:43:eb:23:46:7c:32:68:fa:
         6c:59:9d:a7:a7:fe:03:03:e8:32:d4:73:bb:a1:d1:fc:af:85:
         97:d8:f7:12:61:48:74:a6:58:75:2a:3f:c2:1a:6d:9e:d8:bf:
         18:2b:fc:78:a2:6d:3f:fa:94:8b:21:64:4e:da:4a:db:54:d4:
         88:75:99:0a:fa:51:77:96:ec:77:ff:e2:b3:f2:eb:0f:06:96:
         3c:e8:5e:72:0c:50:f7:58:90:39:5e:36:23:73:7a:ba:cd:30:
         e0:a7:5a:b9
-----BEGIN CERTIFICATE-----
MIIDXDCCAkSgAwIBAgIQdurTKKLf/fNuNor+3wMGQDANBgkqhkiG9w0BAQsFADAW
MRQwEgYDVQQDDAtFYXN5LVJTQSBDQTAeFw0yMzA3MTQxODAwMjVaFw0zMzA3MTEx
ODAwMjVaMBExDzANBgNVBAMMBnNlcnZlcjCCASIwDQYJKoZIhvcNAQEBBQADggEP
ADCCAQoCggEBAJmHLOpn4QA0LZOgTehdgYuKm2jBjiELsvTZAeHOI6j4pAZqZ2N9
Ke1MWsfhKhppbIfkFVV9BaNASJUKMmb44Rgiji0PIEugo1xrwixwzzpa2SUMKikJ
HxQBCBREp1B1Nu4UiivSNAUUXNGQf4nF4fxjR9dsHzbyd2VyWZVkmCOpuxgQMu3F
/seg5bQSRQ8ILxc5Zt+/Vle1jCoYM50xkAHoyZ2dlf+uCDsMUXfvK+efCzDsAsZf
b/SLyobBa1Yc8aMvU2LfAEF4teBDenacJhwbUoPJlYPcCrTXbhJJ19BLCp5MOPEB
g+anvxCRoh2W0LjG+HCPJE01MgV/pfnqAVECAwEAAaOBqjCBpzAJBgNVHRMEAjAA
MB0GA1UdDgQWBBSLDWsoX/sCJiinbU+BQmZLapKOPjBGBgNVHSMEPzA9gBTbw15l
qi603vkQUpRJYXhDjuZ8EaEapBgwFjEUMBIGA1UEAwwLRWFzeS1SU0EgQ0GCCQCm
xenGNuVuWzATBgNVHSUEDDAKBggrBgEFBQcDATALBgNVHQ8EBAMCBaAwEQYDVR0R
BAowCIIGc2VydmVyMA0GCSqGSIb3DQEBCwUAA4IBAQDEMjHv8Yg7E8j9K8fMdRC8
pLEH5ph/CGB9xO5l/N7e5MfO9cfFLyUHoY+fSBTo/wTss2DaDDEj1bjiE8ebbK2g
k6gTjad0FlseZkFK+RfKh11pImYGur6fXXn4VseG7yJn0BrppfffQ/JdraQxqHBd
NDZ1UJMnTcZwsoMhY6Nnq3OEzCrtPC6EQvIm+k95Hp1kTIb/ugdDeF2iQ+sjRnwy
aPpsWZ2np/4DA+gy1HO7odH8r4WX2PcSYUh0plh1Kj/CGm2e2L8YK/x4om0/+pSL
IWRO2krbVNSIdZkK+lF3lux3/+Kz8usPBpY86F5yDFD3WJA5XjYjc3q6zTDgp1q5
-----END CERTIFICATE-----
