Certificate:
    Data:
        Version: 3 (0x2)
        Serial Number:
            af:49:6e:98:74:a4:52:b8:9e:b8:f6:72:33:b1:42:6a
        Signature Algorithm: sha256WithRSAEncryption
        Issuer: CN=Easy-RSA CA
        Validity
            Not Before: Apr  6 09:09:47 2023 GMT
            Not After : Apr  3 09:09:47 2033 GMT
        Subject: CN=jp
        Subject Public Key Info:
            Public Key Algorithm: rsaEncryption
                RSA Public-Key: (2048 bit)
                Modulus:
                    00:ae:71:d5:df:91:1a:6c:fa:88:49:cb:94:5f:38:
                    a7:4f:cc:bf:91:2f:6c:0c:33:c5:b5:13:26:33:90:
                    1e:dc:82:35:d7:a2:76:dc:c8:86:00:b4:b5:43:07:
                    2f:81:82:bc:58:96:c1:a7:bc:82:52:0d:4c:f6:f1:
                    6b:41:13:71:bf:a2:ac:3e:cb:bd:fa:0e:c9:80:25:
                    93:cf:67:96:9f:b9:48:f9:8d:bd:45:3c:91:90:65:
                    9e:4f:bc:09:d2:1f:5d:2c:89:21:20:71:83:71:ab:
                    55:73:d4:68:6a:ac:1d:f6:09:01:df:23:2d:8c:18:
                    f1:a2:78:ad:f0:8c:b0:31:76:31:85:ee:af:19:db:
                    01:8f:95:a0:39:80:27:8c:41:d9:cf:fb:2f:b3:55:
                    1d:a0:a9:5a:da:7c:02:10:66:5a:66:2e:a9:7d:83:
                    02:8b:60:7e:44:e2:3b:1b:8c:33:f2:38:43:bc:e6:
                    aa:a6:2b:38:d4:f2:6b:ef:b0:29:9a:e7:1e:02:fd:
                    27:46:1a:83:7b:34:c3:e4:07:0a:b2:86:cd:49:27:
                    48:9d:91:93:fe:ee:61:27:89:0e:a9:2b:c0:b4:59:
                    ce:ad:e7:00:5a:61:de:58:c9:d1:0e:5f:56:24:a8:
                    68:81:d2:5c:90:7a:6a:91:35:7c:01:63:49:66:bc:
                    e6:a9
                Exponent: 65537 (0x10001)
        X509v3 extensions:
            X509v3 Basic Constraints: 
                CA:FALSE
            X509v3 Subject Key Identifier: 
                76:AA:A9:C1:8A:2F:31:27:6C:1A:48:10:31:86:34:76:85:13:70:7D
            X509v3 Authority Key Identifier: 
                keyid:DB:1B:69:B8:5C:6D:A9:49:1A:B8:78:A2:77:EF:5E:3A:A9:49:DB:3C
                DirName:/CN=Easy-RSA CA
                serial:63:D9:23:AD:75:FD:E1:A7:96:29:4B:C6:CD:48:47:42:71:AD:DB:01

            X509v3 Extended Key Usage: 
                TLS Web Client Authentication
            X509v3 Key Usage: 
                Digital Signature
    Signature Algorithm: sha256WithRSAEncryption
         05:34:fc:e4:91:a4:4b:11:c0:36:17:4d:bd:52:fa:c2:21:f7:
         ca:60:30:c9:35:37:ae:dd:9e:0b:99:6c:99:57:43:1e:05:42:
         2e:45:25:bb:b7:27:bd:13:33:30:e8:84:91:50:7a:23:6b:0b:
         22:dc:c2:42:12:8a:14:71:bf:be:28:d5:d6:04:0d:fe:6e:e0:
         c7:1e:75:f0:56:4b:9f:16:4e:37:59:af:69:69:ae:e6:93:70:
         45:dc:df:30:0f:8b:5e:26:03:72:1a:22:1c:65:ac:d2:6a:f0:
         7b:14:43:9b:c1:c0:02:9b:38:6f:09:97:0d:b8:33:c9:b8:21:
         96:20:2d:f3:10:ec:ae:03:b8:34:35:46:1e:5b:b0:cd:23:e1:
         fb:ae:e4:22:c5:c1:05:97:c5:14:25:65:31:38:51:54:7f:7b:
         70:e8:d5:92:2b:c5:a7:17:43:df:f4:53:27:41:35:87:a2:2f:
         78:fc:f8:5d:4c:cb:05:63:e5:a3:2e:94:cc:b0:34:da:44:e1:
         fa:6e:6f:e7:fd:04:20:fa:37:0c:74:b8:f6:a9:7e:c9:6c:76:
         eb:a5:3a:3e:0a:7f:db:51:5c:7f:8c:d6:db:00:dc:3a:64:de:
         26:f2:86:23:a2:ab:96:fd:f7:62:95:70:c9:53:43:48:b0:6d:
         cd:ec:c4:89
-----BEGIN CERTIFICATE-----
MIIDUTCCAjmgAwIBAgIRAK9Jbph0pFK4nrj2cjOxQmowDQYJKoZIhvcNAQELBQAw
FjEUMBIGA1UEAwwLRWFzeS1SU0EgQ0EwHhcNMjMwNDA2MDkwOTQ3WhcNMzMwNDAz
MDkwOTQ3WjANMQswCQYDVQQDDAJqcDCCASIwDQYJKoZIhvcNAQEBBQADggEPADCC
AQoCggEBAK5x1d+RGmz6iEnLlF84p0/Mv5EvbAwzxbUTJjOQHtyCNdeidtzIhgC0
tUMHL4GCvFiWwae8glINTPbxa0ETcb+irD7LvfoOyYAlk89nlp+5SPmNvUU8kZBl
nk+8CdIfXSyJISBxg3GrVXPUaGqsHfYJAd8jLYwY8aJ4rfCMsDF2MYXurxnbAY+V
oDmAJ4xB2c/7L7NVHaCpWtp8AhBmWmYuqX2DAotgfkTiOxuMM/I4Q7zmqqYrONTy
a++wKZrnHgL9J0Yag3s0w+QHCrKGzUknSJ2Rk/7uYSeJDqkrwLRZzq3nAFph3ljJ
0Q5fViSoaIHSXJB6apE1fAFjSWa85qkCAwEAAaOBojCBnzAJBgNVHRMEAjAAMB0G
A1UdDgQWBBR2qqnBii8xJ2waSBAxhjR2hRNwfTBRBgNVHSMESjBIgBTbG2m4XG2p
SRq4eKJ37146qUnbPKEapBgwFjEUMBIGA1UEAwwLRWFzeS1SU0EgQ0GCFGPZI611
/eGnlilLxs1IR0JxrdsBMBMGA1UdJQQMMAoGCCsGAQUFBwMCMAsGA1UdDwQEAwIH
gDANBgkqhkiG9w0BAQsFAAOCAQEABTT85JGkSxHANhdNvVL6wiH3ymAwyTU3rt2e
C5lsmVdDHgVCLkUlu7cnvRMzMOiEkVB6I2sLItzCQhKKFHG/vijV1gQN/m7gxx51
8FZLnxZON1mvaWmu5pNwRdzfMA+LXiYDchoiHGWs0mrwexRDm8HAAps4bwmXDbgz
ybghliAt8xDsrgO4NDVGHluwzSPh+67kIsXBBZfFFCVlMThRVH97cOjVkivFpxdD
3/RTJ0E1h6IvePz4XUzLBWPloy6UzLA02kTh+m5v5/0EIPo3DHS49ql+yWx266U6
Pgp/21Fcf4zW2wDcOmTeJvKGI6Krlv33YpVwyVNDSLBtzezEiQ==
-----END CERTIFICATE-----
