Certificate:
    Data:
        Version: 3 (0x2)
        Serial Number:
            bb:1d:99:b5:d6:d7:57:58:c4:f5:04:2b:b6:ad:2a:92
    Signature Algorithm: sha256WithRSAEncryption
        Issuer: CN=Easy-RSA CA
        Validity
            Not Before: Apr  6 09:22:03 2023 GMT
            Not After : Apr  3 09:22:03 2033 GMT
        Subject: CN=jp
        Subject Public Key Info:
            Public Key Algorithm: rsaEncryption
                Public-Key: (2048 bit)
                Modulus:
                    00:ba:b6:f0:20:a4:d0:dc:a4:11:fd:5c:a5:ed:80:
                    47:6c:2c:25:1c:6b:d0:30:6f:b0:90:c6:5f:11:b1:
                    03:76:68:29:a6:2c:54:9f:6f:3e:45:ac:43:f8:f3:
                    d2:8d:01:5f:68:51:5f:ef:ae:ff:b0:b8:84:aa:cb:
                    1f:c8:6d:fd:97:4c:9c:97:00:a0:9c:ab:f4:ab:98:
                    d7:0b:f6:35:fb:44:54:69:b9:43:ab:79:85:57:17:
                    64:6a:5e:29:12:29:81:80:ec:07:25:c2:e7:32:cc:
                    c7:6e:d7:0a:e3:03:22:7c:88:4d:fc:27:09:c3:c3:
                    b3:b8:af:2b:f4:d3:e4:7c:6a:ff:e4:37:af:13:f3:
                    6b:ec:39:a0:f6:e2:e2:1b:28:4b:34:c7:f8:62:98:
                    75:f9:c2:90:21:6f:b8:65:55:75:10:10:b2:19:c5:
                    6f:00:cf:a7:be:7d:33:7a:76:12:17:21:07:1f:df:
                    a7:9d:bc:44:4c:09:93:36:6c:34:db:d2:81:c7:7c:
                    c9:9e:13:3f:37:7b:af:e4:7e:ab:e8:fd:0e:fb:8e:
                    ff:4e:62:e7:99:46:6b:46:c0:07:f5:96:8a:db:5a:
                    ca:28:29:e0:37:d7:a4:e2:33:b2:cc:16:61:d8:2d:
                    9a:8f:81:31:5e:e6:14:35:60:4b:38:8e:ca:86:7f:
                    92:c3
                Exponent: 65537 (0x10001)
        X509v3 extensions:
            X509v3 Basic Constraints: 
                CA:FALSE
            X509v3 Subject Key Identifier: 
                3A:BA:88:EE:54:9A:EF:27:AF:71:73:15:AF:DE:B4:31:82:0E:EE:E2
            X509v3 Authority Key Identifier: 
                keyid:E0:48:6A:C8:89:C2:70:9B:18:80:51:0B:B8:5D:3A:BE:8E:8C:5A:DF
                DirName:/CN=Easy-RSA CA
                serial:FA:52:78:01:5C:CB:68:AA

            X509v3 Extended Key Usage: 
                TLS Web Client Authentication
            X509v3 Key Usage: 
                Digital Signature
    Signature Algorithm: sha256WithRSAEncryption
         15:b9:d0:8d:07:fd:54:ca:57:bf:45:30:1a:b5:68:c1:f4:66:
         6c:c3:5e:f9:75:34:58:aa:a0:0c:79:12:7d:f1:4b:fc:7e:c4:
         12:14:02:d3:50:1d:1f:b9:c7:73:24:fa:a6:d5:57:72:b1:aa:
         f9:ea:30:e2:f9:5b:12:a9:75:dd:7f:df:d0:f7:40:3e:e7:d8:
         07:e1:fa:0e:9e:b0:c0:1d:9e:ed:47:58:af:ab:53:d2:41:a5:
         19:29:1a:79:8f:b4:08:ff:a5:59:c3:fb:29:55:40:a0:75:fc:
         72:86:90:31:73:57:d0:9e:a4:14:dc:f7:16:90:03:47:d7:d4:
         c3:d6:1e:ed:bb:00:ad:30:4b:4d:6f:ff:24:f8:ad:17:56:e2:
         cb:28:c4:bb:9b:71:31:c8:36:69:89:27:15:d2:8a:d9:54:39:
         d4:eb:c7:db:7c:9d:e0:30:fe:e9:fe:f4:70:e6:69:45:ec:10:
         ba:86:66:4b:fa:0c:50:b5:29:bc:d3:ac:0c:85:34:bb:e5:99:
         29:ef:41:cd:e8:69:11:40:5c:e7:d0:35:97:f1:65:fd:58:19:
         dc:8c:f6:a9:b3:07:98:8b:80:8e:91:a8:97:77:92:15:7d:9c:
         32:fe:13:22:04:ab:dc:93:32:f5:98:3d:af:43:4f:be:1d:e9:
         5d:5e:35:b6
-----BEGIN CERTIFICATE-----
MIIDRjCCAi6gAwIBAgIRALsdmbXW11dYxPUEK7atKpIwDQYJKoZIhvcNAQELBQAw
FjEUMBIGA1UEAwwLRWFzeS1SU0EgQ0EwHhcNMjMwNDA2MDkyMjAzWhcNMzMwNDAz
MDkyMjAzWjANMQswCQYDVQQDDAJqcDCCASIwDQYJKoZIhvcNAQEBBQADggEPADCC
AQoCggEBALq28CCk0NykEf1cpe2AR2wsJRxr0DBvsJDGXxGxA3ZoKaYsVJ9vPkWs
Q/jz0o0BX2hRX++u/7C4hKrLH8ht/ZdMnJcAoJyr9KuY1wv2NftEVGm5Q6t5hVcX
ZGpeKRIpgYDsByXC5zLMx27XCuMDInyITfwnCcPDs7ivK/TT5Hxq/+Q3rxPza+w5
oPbi4hsoSzTH+GKYdfnCkCFvuGVVdRAQshnFbwDPp759M3p2EhchBx/fp528REwJ
kzZsNNvSgcd8yZ4TPzd7r+R+q+j9DvuO/05i55lGa0bAB/WWittayigp4DfXpOIz
sswWYdgtmo+BMV7mFDVgSziOyoZ/ksMCAwEAAaOBlzCBlDAJBgNVHRMEAjAAMB0G
A1UdDgQWBBQ6uojuVJrvJ69xcxWv3rQxgg7u4jBGBgNVHSMEPzA9gBTgSGrIicJw
mxiAUQu4XTq+joxa36EapBgwFjEUMBIGA1UEAwwLRWFzeS1SU0EgQ0GCCQD6UngB
XMtoqjATBgNVHSUEDDAKBggrBgEFBQcDAjALBgNVHQ8EBAMCB4AwDQYJKoZIhvcN
AQELBQADggEBABW50I0H/VTKV79FMBq1aMH0ZmzDXvl1NFiqoAx5En3xS/x+xBIU
AtNQHR+5x3Mk+qbVV3KxqvnqMOL5WxKpdd1/39D3QD7n2Afh+g6esMAdnu1HWK+r
U9JBpRkpGnmPtAj/pVnD+ylVQKB1/HKGkDFzV9CepBTc9xaQA0fX1MPWHu27AK0w
S01v/yT4rRdW4ssoxLubcTHINmmJJxXSitlUOdTrx9t8neAw/un+9HDmaUXsELqG
Zkv6DFC1KbzTrAyFNLvlmSnvQc3oaRFAXOfQNZfxZf1YGdyM9qmzB5iLgI6RqJd3
khV9nDL+EyIEq9yTMvWYPa9DT74d6V1eNbY=
-----END CERTIFICATE-----
