Certificate:
    Data:
        Version: 3 (0x2)
        Serial Number:
            be:c5:59:6c:b8:a2:be:6b:94:8d:cc:d4:e9:01:69:77
    Signature Algorithm: sha256WithRSAEncryption
        Issuer: CN=Easy-RSA CA
        Validity
            Not Before: Apr 12 05:42:53 2023 GMT
            Not After : Apr  9 05:42:53 2033 GMT
        Subject: CN=jp
        Subject Public Key Info:
            Public Key Algorithm: rsaEncryption
                Public-Key: (2048 bit)
                Modulus:
                    00:e6:73:12:97:69:06:6e:39:e2:df:43:03:35:4b:
                    4b:06:ee:bc:18:14:65:11:1a:6c:08:74:da:5c:59:
                    d6:72:51:9a:73:ba:9d:99:00:61:03:9b:e7:be:e4:
                    eb:62:4a:4b:aa:3b:3f:3d:de:20:6a:8e:d1:20:24:
                    7b:c0:01:6f:0d:25:21:84:7c:60:c6:f8:6f:de:ce:
                    63:d6:cc:d9:55:ce:a2:8a:29:c2:f5:8b:b2:47:bc:
                    e4:c1:f4:c1:1f:39:35:e4:ea:ef:21:cf:ea:65:41:
                    0e:d0:34:83:cc:94:34:52:aa:81:ce:56:5b:2c:2b:
                    89:f1:11:76:8a:f8:82:cb:76:ba:30:45:d2:75:53:
                    17:77:1f:6c:da:be:26:a9:be:39:b7:fa:63:10:5a:
                    79:55:18:99:66:b3:4a:cf:55:84:8f:7f:61:c0:e9:
                    23:e0:93:dd:bc:4d:90:90:44:89:bb:1a:f8:17:ca:
                    76:25:36:34:ad:44:8c:21:0c:31:eb:7d:97:82:6f:
                    a3:db:d7:ae:67:b9:6a:5a:70:52:bb:8f:26:77:aa:
                    a1:7e:ee:b6:53:7b:07:22:90:b7:17:6b:be:0c:be:
                    ec:8f:cc:68:38:49:4c:68:f7:46:99:ed:8e:af:76:
                    17:9f:d2:16:b2:30:98:c4:0e:a6:02:60:4b:f8:2d:
                    24:db
                Exponent: 65537 (0x10001)
        X509v3 extensions:
            X509v3 Basic Constraints: 
                CA:FALSE
            X509v3 Subject Key Identifier: 
                F2:7E:81:30:74:03:9C:51:EE:9C:50:47:8E:67:96:D2:35:B2:C6:B2
            X509v3 Authority Key Identifier: 
                keyid:43:C1:CD:E4:0E:F1:45:24:90:EE:69:A5:34:51:D6:A9:FE:EF:80:2A
                DirName:/CN=Easy-RSA CA
                serial:ED:6E:CE:A8:C1:1F:67:99

            X509v3 Extended Key Usage: 
                TLS Web Client Authentication
            X509v3 Key Usage: 
                Digital Signature
    Signature Algorithm: sha256WithRSAEncryption
         71:1b:15:f1:01:25:48:71:e8:a8:66:20:2e:e7:ee:6a:48:e0:
         7c:7a:aa:86:fa:76:c5:f6:53:71:6e:96:5a:84:d9:10:2e:84:
         e9:b6:4a:14:9f:5f:2c:de:d2:be:a4:15:f1:02:cf:d6:ba:73:
         05:ac:f1:96:c0:d0:c4:08:00:e7:41:f8:5f:21:50:66:46:44:
         fd:06:1e:b5:b3:d9:ba:c7:82:2f:c4:b9:71:b4:58:67:7a:11:
         31:24:35:66:85:e9:67:48:f4:01:77:92:93:02:ac:4a:3c:03:
         f2:54:fa:a2:03:ba:65:ca:a1:ec:03:c1:ec:a3:1f:86:ff:49:
         36:7f:61:2b:b6:15:d1:8f:dc:fd:d2:d8:16:e0:c6:4c:95:e8:
         67:ef:e2:3c:7a:7e:0b:06:51:d8:86:0e:d6:24:f2:3f:85:5b:
         48:af:3b:c0:8c:d7:f9:60:8a:ca:c5:7b:ae:2c:88:71:bd:ea:
         94:20:dc:b1:c9:3a:b4:96:e4:85:53:72:72:18:f7:34:ff:c1:
         73:0f:a3:de:bd:a9:e3:f3:26:d8:97:ec:78:9a:76:fd:1c:12:
         d2:2c:3b:f0:10:1a:e3:07:73:8a:f9:e6:e0:c5:81:f3:6b:25:
         54:09:9f:39:2d:48:9e:0e:cd:57:87:16:c8:cb:28:0b:2e:f4:
         7b:f4:59:8a
-----BEGIN CERTIFICATE-----
MIIDRjCCAi6gAwIBAgIRAL7FWWy4or5rlI3M1OkBaXcwDQYJKoZIhvcNAQELBQAw
FjEUMBIGA1UEAwwLRWFzeS1SU0EgQ0EwHhcNMjMwNDEyMDU0MjUzWhcNMzMwNDA5
MDU0MjUzWjANMQswCQYDVQQDDAJqcDCCASIwDQYJKoZIhvcNAQEBBQADggEPADCC
AQoCggEBAOZzEpdpBm454t9DAzVLSwbuvBgUZREabAh02lxZ1nJRmnO6nZkAYQOb
577k62JKS6o7Pz3eIGqO0SAke8ABbw0lIYR8YMb4b97OY9bM2VXOooopwvWLske8
5MH0wR85NeTq7yHP6mVBDtA0g8yUNFKqgc5WWywrifERdor4gst2ujBF0nVTF3cf
bNq+Jqm+Obf6YxBaeVUYmWazSs9VhI9/YcDpI+CT3bxNkJBEibsa+BfKdiU2NK1E
jCEMMet9l4Jvo9vXrme5alpwUruPJneqoX7utlN7ByKQtxdrvgy+7I/MaDhJTGj3
Rpntjq92F5/SFrIwmMQOpgJgS/gtJNsCAwEAAaOBlzCBlDAJBgNVHRMEAjAAMB0G
A1UdDgQWBBTyfoEwdAOcUe6cUEeOZ5bSNbLGsjBGBgNVHSMEPzA9gBRDwc3kDvFF
JJDuaaU0Udap/u+AKqEapBgwFjEUMBIGA1UEAwwLRWFzeS1SU0EgQ0GCCQDtbs6o
wR9nmTATBgNVHSUEDDAKBggrBgEFBQcDAjALBgNVHQ8EBAMCB4AwDQYJKoZIhvcN
AQELBQADggEBAHEbFfEBJUhx6KhmIC7n7mpI4Hx6qob6dsX2U3FullqE2RAuhOm2
ShSfXyze0r6kFfECz9a6cwWs8ZbA0MQIAOdB+F8hUGZGRP0GHrWz2brHgi/EuXG0
WGd6ETEkNWaF6WdI9AF3kpMCrEo8A/JU+qIDumXKoewDweyjH4b/STZ/YSu2FdGP
3P3S2BbgxkyV6Gfv4jx6fgsGUdiGDtYk8j+FW0ivO8CM1/lgisrFe64siHG96pQg
3LHJOrSW5IVTcnIY9zT/wXMPo969qePzJtiX7Hiadv0cEtIsO/AQGuMHc4r55uDF
gfNrJVQJnzktSJ4OzVeHFsjLKAsu9Hv0WYo=
-----END CERTIFICATE-----
