Certificate:
    Data:
        Version: 3 (0x2)
        Serial Number:
            c4:40:3f:eb:0b:f9:b4:6d:72:6b:d7:f3:8a:d5:2c:12
    Signature Algorithm: sha256WithRSAEncryption
        Issuer: CN=Easy-RSA CA
        Validity
            Not Before: Apr  6 09:22:03 2023 GMT
            Not After : Apr  3 09:22:03 2033 GMT
        Subject: CN=server
        Subject Public Key Info:
            Public Key Algorithm: rsaEncryption
                Public-Key: (2048 bit)
                Modulus:
                    00:b8:27:5a:b5:80:d1:e8:d7:67:da:77:d8:e7:53:
                    a4:7f:ab:4c:b5:0e:60:83:0e:3f:14:1b:1e:93:08:
                    c3:64:9e:60:8c:37:5d:91:0b:b0:b9:b2:38:60:67:
                    5e:6e:a4:df:28:d0:7c:65:8c:24:92:02:08:72:24:
                    73:5a:f2:8f:bc:90:47:7c:74:15:e8:72:0f:bb:76:
                    82:30:4d:d8:66:24:cc:4c:cb:af:f9:8a:d9:bc:f7:
                    dc:0c:9c:ac:89:a9:5b:bf:17:45:b5:a1:c3:a4:05:
                    fd:0a:ba:b2:00:6f:15:87:fe:c9:9c:52:7d:32:d9:
                    9a:86:14:1d:4c:7d:d2:c6:3c:1e:60:df:f2:50:bc:
                    85:e8:9e:c4:6a:16:76:59:35:14:62:c4:8c:b6:c1:
                    90:37:72:c0:50:b9:2a:f1:26:5b:91:f1:6e:e2:07:
                    b1:d4:15:91:cc:1e:e6:16:cd:02:5b:45:26:7b:bf:
                    34:b5:96:cd:dd:73:15:f8:3f:3e:54:7c:4f:d3:5a:
                    0f:5e:86:f4:72:01:74:58:c7:71:76:6a:d7:3c:62:
                    39:5c:a9:5a:ee:38:6c:c5:f7:45:ea:f9:a5:c6:89:
                    94:5b:6b:c8:72:c2:18:eb:42:ea:d4:af:3a:29:56:
                    ed:2a:94:4e:83:f6:0f:de:19:5d:5b:92:9d:41:a1:
                    f3:6f
                Exponent: 65537 (0x10001)
        X509v3 extensions:
            X509v3 Basic Constraints: 
                CA:FALSE
            X509v3 Subject Key Identifier: 
                DA:1A:9A:87:87:02:C4:75:82:4F:BE:0B:69:A5:20:58:63:AB:CB:71
            X509v3 Authority Key Identifier: 
                keyid:E0:48:6A:C8:89:C2:70:9B:18:80:51:0B:B8:5D:3A:BE:8E:8C:5A:DF
                DirName:/CN=Easy-RSA CA
                serial:FA:52:78:01:5C:CB:68:AA

            X509v3 Extended Key Usage: 
                TLS Web Server Authentication
            X509v3 Key Usage: 
                Digital Signature, Key Encipherment
            X509v3 Subject Alternative Name: 
                DNS:server
    Signature Algorithm: sha256WithRSAEncryption
         a9:25:a5:71:eb:53:85:47:5c:da:b2:68:83:7d:c8:96:ea:6e:
         33:4e:c3:9e:d1:ce:11:f7:a6:68:f9:e9:57:27:a5:21:31:6a:
         30:f9:f3:0a:c6:2d:fd:cd:8c:49:9c:34:ac:45:0a:98:78:42:
         ff:41:51:c1:cb:f4:c4:65:54:7a:91:87:b1:c2:78:67:b5:99:
         7d:4e:27:76:92:52:ec:56:95:c0:07:dc:c3:99:27:64:62:17:
         e6:2a:9a:d4:21:32:f0:64:07:cf:b8:30:21:12:ab:36:32:25:
         b0:c3:a0:19:10:38:b1:44:e0:0b:d0:77:e2:42:ab:d5:3a:5e:
         63:78:69:9e:b1:ac:35:f5:5e:7f:56:04:6f:85:b2:40:a8:d1:
         6f:e5:39:0d:88:1b:10:3b:83:cf:ef:80:3d:e1:5a:ca:0a:b1:
         d8:53:fd:04:f6:61:09:4c:18:37:d0:09:4c:be:52:8b:05:96:
         d0:4a:a2:fc:2b:9a:4e:33:8b:26:6c:a0:6d:c3:dc:2f:6e:f3:
         d2:6f:ed:a6:e7:27:d5:14:4a:10:dc:61:f3:7e:87:38:a0:f7:
         47:2e:62:a9:5c:71:ef:ca:ee:61:05:59:60:54:90:4f:f6:03:
         da:b1:a0:af:43:83:47:5d:1c:6c:90:c6:03:35:a9:73:f3:41:
         46:fd:e2:f9
-----BEGIN CERTIFICATE-----
MIIDXTCCAkWgAwIBAgIRAMRAP+sL+bRtcmvX84rVLBIwDQYJKoZIhvcNAQELBQAw
FjEUMBIGA1UEAwwLRWFzeS1SU0EgQ0EwHhcNMjMwNDA2MDkyMjAzWhcNMzMwNDAz
MDkyMjAzWjARMQ8wDQYDVQQDDAZzZXJ2ZXIwggEiMA0GCSqGSIb3DQEBAQUAA4IB
DwAwggEKAoIBAQC4J1q1gNHo12fad9jnU6R/q0y1DmCDDj8UGx6TCMNknmCMN12R
C7C5sjhgZ15upN8o0HxljCSSAghyJHNa8o+8kEd8dBXocg+7doIwTdhmJMxMy6/5
itm899wMnKyJqVu/F0W1ocOkBf0KurIAbxWH/smcUn0y2ZqGFB1MfdLGPB5g3/JQ
vIXonsRqFnZZNRRixIy2wZA3csBQuSrxJluR8W7iB7HUFZHMHuYWzQJbRSZ7vzS1
ls3dcxX4Pz5UfE/TWg9ehvRyAXRYx3F2atc8YjlcqVruOGzF90Xq+aXGiZRba8hy
whjrQurUrzopVu0qlE6D9g/eGV1bkp1BofNvAgMBAAGjgaowgacwCQYDVR0TBAIw
ADAdBgNVHQ4EFgQU2hqah4cCxHWCT74LaaUgWGOry3EwRgYDVR0jBD8wPYAU4Ehq
yInCcJsYgFELuF06vo6MWt+hGqQYMBYxFDASBgNVBAMMC0Vhc3ktUlNBIENBggkA
+lJ4AVzLaKowEwYDVR0lBAwwCgYIKwYBBQUHAwEwCwYDVR0PBAQDAgWgMBEGA1Ud
EQQKMAiCBnNlcnZlcjANBgkqhkiG9w0BAQsFAAOCAQEAqSWlcetThUdc2rJog33I
lupuM07DntHOEfemaPnpVyelITFqMPnzCsYt/c2MSZw0rEUKmHhC/0FRwcv0xGVU
epGHscJ4Z7WZfU4ndpJS7FaVwAfcw5knZGIX5iqa1CEy8GQHz7gwIRKrNjIlsMOg
GRA4sUTgC9B34kKr1TpeY3hpnrGsNfVef1YEb4WyQKjRb+U5DYgbEDuDz++APeFa
ygqx2FP9BPZhCUwYN9AJTL5SiwWW0Eqi/CuaTjOLJmygbcPcL27z0m/tpucn1RRK
ENxh836HOKD3Ry5iqVxx78ruYQVZYFSQT/YD2rGgr0ODR10cbJDGAzWpc/NBRv3i
+Q==
-----END CERTIFICATE-----
