Certificate:
    Data:
        Version: 3 (0x2)
        Serial Number:
            ce:dd:93:5f:69:28:b8:dd:29:dc:cf:46:fe:fe:dc:d6
    Signature Algorithm: sha256WithRSAEncryption
        Issuer: CN=Easy-RSA CA
        Validity
            Not Before: Dec 16 06:08:35 2023 GMT
            Not After : Dec 13 06:08:35 2033 GMT
        Subject: CN=server
        Subject Public Key Info:
            Public Key Algorithm: rsaEncryption
                Public-Key: (2048 bit)
                Modulus:
                    00:cb:d5:fc:3f:07:79:14:ec:18:c0:37:5c:93:08:
                    40:a1:e3:c6:28:f3:e4:4c:85:92:5e:54:19:aa:40:
                    89:4b:a7:13:9d:d4:39:79:a2:e5:b0:64:9d:7c:02:
                    82:da:8d:88:84:59:3f:4a:91:e5:f2:a5:a4:60:61:
                    94:5e:00:c0:b6:43:6e:65:16:71:d5:73:88:38:a9:
                    92:b1:0a:27:cd:f9:5b:e4:ed:22:3a:09:f8:1c:e1:
                    2b:ba:6b:1e:8d:cf:03:f3:26:79:c5:1d:ab:ab:9f:
                    c7:fb:28:5f:e3:1e:1e:bf:75:bf:3f:14:8d:01:21:
                    2e:24:e6:85:cf:ea:b6:7c:e5:2d:b3:e4:3c:fe:df:
                    66:88:80:99:c0:9b:56:80:b6:04:4b:81:68:04:22:
                    09:e0:dc:1d:26:42:c0:96:d4:91:cf:67:09:3e:87:
                    3a:02:39:1f:00:db:77:b0:79:47:7f:1d:b4:53:91:
                    fb:d1:8f:c6:2b:45:e5:1c:44:62:3a:3e:42:cb:64:
                    0f:db:77:15:4c:07:fc:e7:43:e4:a5:12:45:fe:e4:
                    ba:d6:45:93:6d:8b:1d:9e:f6:2b:c6:11:cb:f9:42:
                    07:80:15:b1:8c:d5:b9:e3:03:c2:77:fa:63:bf:7b:
                    a2:08:9c:05:3c:86:2a:1f:30:df:ed:f9:43:9a:84:
                    c2:9d
                Exponent: 65537 (0x10001)
        X509v3 extensions:
            X509v3 Basic Constraints: 
                CA:FALSE
            X509v3 Subject Key Identifier: 
                07:18:2D:E3:FE:0B:74:D8:A8:1E:09:22:34:DC:19:78:33:24:DB:C6
            X509v3 Authority Key Identifier: 
                keyid:79:19:92:9A:E1:0B:23:A6:71:4F:F4:45:71:44:B3:FB:A2:F2:9B:99
                DirName:/CN=Easy-RSA CA
                serial:8F:D8:EF:57:44:60:93:44

            X509v3 Extended Key Usage: 
                TLS Web Server Authentication
            X509v3 Key Usage: 
                Digital Signature, Key Encipherment
            X509v3 Subject Alternative Name: 
                DNS:server
    Signature Algorithm: sha256WithRSAEncryption
         27:e8:0f:aa:3f:65:b8:34:f7:d6:a8:f2:18:f3:14:93:11:cc:
         03:ff:8f:3b:b1:51:ee:4a:10:c4:26:90:33:b5:2f:49:b9:56:
         75:61:da:25:5d:c7:fe:1a:56:40:a1:2c:fe:d5:14:99:75:9d:
         11:29:b4:8f:d4:55:94:90:71:3d:84:64:e8:60:94:26:e5:31:
         5f:59:fc:a3:c6:b4:1f:a9:f9:d1:1c:f2:22:7a:f5:c7:29:78:
         76:87:c5:bb:db:6d:e8:94:35:3d:6b:d3:1c:73:c9:cb:10:58:
         d7:b5:0f:2e:98:a6:62:96:2b:b3:9a:18:83:af:d6:2b:e4:a2:
         05:4a:38:8e:f7:ac:5c:ad:2e:02:89:8f:ec:44:3d:a4:64:2b:
         1d:ab:d9:5b:63:4a:63:10:b2:c4:88:f7:9f:6f:d3:33:38:c5:
         fd:4e:0c:db:e8:bf:0f:5c:ef:ee:48:ba:e8:4a:e7:8d:0d:b9:
         b2:98:9a:98:3c:85:ea:e4:65:1f:17:c0:f1:08:1d:4d:9a:36:
         4f:c3:72:76:26:5a:19:b2:d4:09:7c:cd:49:43:ec:b0:87:53:
         7a:a0:d1:f0:f2:70:1d:b5:63:37:c0:2c:8c:4d:b3:cf:c3:de:
         cd:b9:21:6f:7e:21:db:57:48:7b:af:97:f9:57:25:44:cb:f2:
         c6:cb:e6:9d
-----BEGIN CERTIFICATE-----
MIIDXTCCAkWgAwIBAgIRAM7dk19pKLjdKdzPRv7+3NYwDQYJKoZIhvcNAQELBQAw
FjEUMBIGA1UEAwwLRWFzeS1SU0EgQ0EwHhcNMjMxMjE2MDYwODM1WhcNMzMxMjEz
MDYwODM1WjARMQ8wDQYDVQQDDAZzZXJ2ZXIwggEiMA0GCSqGSIb3DQEBAQUAA4IB
DwAwggEKAoIBAQDL1fw/B3kU7BjAN1yTCECh48Yo8+RMhZJeVBmqQIlLpxOd1Dl5
ouWwZJ18AoLajYiEWT9KkeXypaRgYZReAMC2Q25lFnHVc4g4qZKxCifN+Vvk7SI6
Cfgc4Su6ax6NzwPzJnnFHaurn8f7KF/jHh6/db8/FI0BIS4k5oXP6rZ85S2z5Dz+
32aIgJnAm1aAtgRLgWgEIgng3B0mQsCW1JHPZwk+hzoCOR8A23eweUd/HbRTkfvR
j8YrReUcRGI6PkLLZA/bdxVMB/znQ+SlEkX+5LrWRZNtix2e9ivGEcv5QgeAFbGM
1bnjA8J3+mO/e6IInAU8hiofMN/t+UOahMKdAgMBAAGjgaowgacwCQYDVR0TBAIw
ADAdBgNVHQ4EFgQUBxgt4/4LdNioHgkiNNwZeDMk28YwRgYDVR0jBD8wPYAUeRmS
muELI6ZxT/RFcUSz+6Lym5mhGqQYMBYxFDASBgNVBAMMC0Vhc3ktUlNBIENBggkA
j9jvV0Rgk0QwEwYDVR0lBAwwCgYIKwYBBQUHAwEwCwYDVR0PBAQDAgWgMBEGA1Ud
EQQKMAiCBnNlcnZlcjANBgkqhkiG9w0BAQsFAAOCAQEAJ+gPqj9luDT31qjyGPMU
kxHMA/+PO7FR7koQxCaQM7UvSblWdWHaJV3H/hpWQKEs/tUUmXWdESm0j9RVlJBx
PYRk6GCUJuUxX1n8o8a0H6n50RzyInr1xyl4dofFu9tt6JQ1PWvTHHPJyxBY17UP
LpimYpYrs5oYg6/WK+SiBUo4jvesXK0uAomP7EQ9pGQrHavZW2NKYxCyxIj3n2/T
MzjF/U4M2+i/D1zv7ki66ErnjQ25spiamDyF6uRlHxfA8QgdTZo2T8NydiZaGbLU
CXzNSUPssIdTeqDR8PJwHbVjN8AsjE2zz8Pezbkhb34h21dIe6+X+VclRMvyxsvm
nQ==
-----END CERTIFICATE-----
