Certificate:
    Data:
        Version: 3 (0x2)
        Serial Number:
            e0:37:9c:40:bd:8b:53:c4:5e:29:d6:ac:af:bd:34:27
    Signature Algorithm: sha256WithRSAEncryption
        Issuer: CN=Easy-RSA CA
        Validity
            Not Before: Jul 14 09:57:04 2023 GMT
            Not After : Jul 11 09:57:04 2033 GMT
        Subject: CN=jp
        Subject Public Key Info:
            Public Key Algorithm: rsaEncryption
                Public-Key: (2048 bit)
                Modulus:
                    00:b9:8c:bf:f8:4b:f2:8f:c0:3a:74:e0:ce:29:aa:
                    d2:bc:8d:19:43:25:41:d2:39:d9:e1:ce:6c:a5:b4:
                    68:c6:3a:70:4b:e6:3a:87:a0:f8:d7:e2:52:6c:16:
                    ba:01:94:66:2a:db:ab:17:5b:c1:7a:3d:06:1b:10:
                    cf:58:94:c2:e0:07:b3:4f:a3:d1:4f:be:be:e3:15:
                    22:42:ab:63:ef:d1:f5:2d:95:0a:56:b6:fa:ff:e4:
                    41:68:8f:60:2a:be:05:0c:78:8a:4f:e7:21:2e:90:
                    04:e2:fd:29:67:9c:a1:6c:c1:e3:a9:3c:38:ee:0c:
                    3b:59:7e:47:31:7e:4e:d1:26:a0:0a:f2:53:c0:b4:
                    60:35:cf:a7:b2:77:b9:57:7e:1a:f9:64:19:c2:c1:
                    2c:e2:3b:01:73:6a:ba:61:01:09:6b:ae:9e:55:58:
                    a5:1d:5b:21:b9:c9:c3:a0:b7:54:41:4c:74:cd:5f:
                    9e:c0:dc:c2:b8:57:c5:40:36:ef:a3:2d:07:07:80:
                    8e:20:3f:bb:cb:92:da:6c:53:6f:d8:38:c3:52:24:
                    db:eb:6c:8f:fe:62:b7:c9:97:0a:75:87:0f:f2:1c:
                    4e:b4:ab:d5:cc:65:80:d8:3b:59:23:59:7b:7e:11:
                    93:98:9c:be:c7:73:5f:98:c5:3c:f2:aa:ab:30:1f:
                    c4:ad
                Exponent: 65537 (0x10001)
        X509v3 extensions:
            X509v3 Basic Constraints: 
                CA:FALSE
            X509v3 Subject Key Identifier: 
                89:4C:B1:76:68:2A:83:D3:A2:FF:D0:8F:51:D0:0B:D2:9C:06:E2:C2
            X509v3 Authority Key Identifier: 
                keyid:94:0F:9E:86:A5:18:2D:75:E5:02:0B:E4:B2:CE:EF:4B:FA:C3:EC:B2
                DirName:/CN=Easy-RSA CA
                serial:F3:43:44:15:69:4E:BB:18

            X509v3 Extended Key Usage: 
                TLS Web Client Authentication
            X509v3 Key Usage: 
                Digital Signature
    Signature Algorithm: sha256WithRSAEncryption
         3e:17:65:07:91:ee:90:54:c2:31:79:00:3d:52:51:eb:3b:22:
         aa:46:70:16:81:08:6e:14:86:0b:62:07:8e:1b:13:47:55:2e:
         53:9d:62:f9:c3:94:95:c0:4b:f6:b3:c9:77:f6:e1:58:3b:ba:
         8d:16:74:46:f6:12:59:85:12:bf:ae:2c:e3:98:23:bf:cb:ae:
         5a:c8:61:c8:39:23:14:58:5e:2c:89:76:90:01:68:ab:8f:d3:
         74:05:40:6b:df:8e:f0:0d:12:d4:8e:c7:ae:15:fb:a5:ea:39:
         20:79:1a:15:97:30:6d:66:44:e3:d0:fd:b6:d3:f4:28:98:e0:
         39:b4:56:91:0c:05:96:be:d0:f4:09:45:64:6d:ee:1d:a7:a9:
         e1:41:a9:eb:54:b3:63:e0:b1:7a:73:67:89:9a:07:3a:6b:08:
         fc:55:c5:ba:c8:fd:fe:f0:42:88:97:b4:59:f6:83:6e:e1:91:
         28:ef:6c:1f:af:25:c5:3d:b7:c2:ae:54:ba:f7:85:92:8a:62:
         b8:23:c7:60:65:50:1b:03:e6:cb:44:b8:1f:e8:4a:09:af:c6:
         ce:05:53:f7:27:8e:7b:8a:ca:1f:bd:19:a8:38:fe:18:eb:4d:
         ec:45:d8:77:93:4e:5c:ce:ed:e1:ce:93:5b:7d:cf:bb:a5:0e:
         33:c3:dc:0a
-----BEGIN CERTIFICATE-----
MIIDRjCCAi6gAwIBAgIRAOA3nEC9i1PEXinWrK+9NCcwDQYJKoZIhvcNAQELBQAw
FjEUMBIGA1UEAwwLRWFzeS1SU0EgQ0EwHhcNMjMwNzE0MDk1NzA0WhcNMzMwNzEx
MDk1NzA0WjANMQswCQYDVQQDDAJqcDCCASIwDQYJKoZIhvcNAQEBBQADggEPADCC
AQoCggEBALmMv/hL8o/AOnTgzimq0ryNGUMlQdI52eHObKW0aMY6cEvmOoeg+Nfi
UmwWugGUZirbqxdbwXo9BhsQz1iUwuAHs0+j0U++vuMVIkKrY+/R9S2VCla2+v/k
QWiPYCq+BQx4ik/nIS6QBOL9KWecoWzB46k8OO4MO1l+RzF+TtEmoAryU8C0YDXP
p7J3uVd+GvlkGcLBLOI7AXNqumEBCWuunlVYpR1bIbnJw6C3VEFMdM1fnsDcwrhX
xUA276MtBweAjiA/u8uS2mxTb9g4w1Ik2+tsj/5it8mXCnWHD/IcTrSr1cxlgNg7
WSNZe34Rk5icvsdzX5jFPPKqqzAfxK0CAwEAAaOBlzCBlDAJBgNVHRMEAjAAMB0G
A1UdDgQWBBSJTLF2aCqD06L/0I9R0AvSnAbiwjBGBgNVHSMEPzA9gBSUD56GpRgt
deUCC+Syzu9L+sPssqEapBgwFjEUMBIGA1UEAwwLRWFzeS1SU0EgQ0GCCQDzQ0QV
aU67GDATBgNVHSUEDDAKBggrBgEFBQcDAjALBgNVHQ8EBAMCB4AwDQYJKoZIhvcN
AQELBQADggEBAD4XZQeR7pBUwjF5AD1SUes7IqpGcBaBCG4UhgtiB44bE0dVLlOd
YvnDlJXAS/azyXf24Vg7uo0WdEb2ElmFEr+uLOOYI7/LrlrIYcg5IxRYXiyJdpAB
aKuP03QFQGvfjvANEtSOx64V+6XqOSB5GhWXMG1mROPQ/bbT9CiY4Dm0VpEMBZa+
0PQJRWRt7h2nqeFBqetUs2PgsXpzZ4maBzprCPxVxbrI/f7wQoiXtFn2g27hkSjv
bB+vJcU9t8KuVLr3hZKKYrgjx2BlUBsD5stEuB/oSgmvxs4FU/cnjnuKyh+9Gag4
/hjrTexF2HeTTlzO7eHOk1t9z7ulDjPD3Ao=
-----END CERTIFICATE-----
