Certificate:
    Data:
        Version: 3 (0x2)
        Serial Number:
            f5:ed:10:25:7a:9b:22:76:1e:6a:51:a0:cd:89:3e:92
    Signature Algorithm: sha256WithRSAEncryption
        Issuer: CN=Easy-RSA CA
        Validity
            Not Before: Jul 14 09:57:04 2023 GMT
            Not After : Jul 11 09:57:04 2033 GMT
        Subject: CN=server
        Subject Public Key Info:
            Public Key Algorithm: rsaEncryption
                Public-Key: (2048 bit)
                Modulus:
                    00:be:a2:2a:d7:1c:00:64:16:4a:4f:52:29:9e:d1:
                    bf:92:3f:c6:79:59:6a:a9:ca:3d:3e:3f:33:36:d3:
                    5a:ad:cb:b4:d9:ca:64:83:4d:18:73:18:ca:ab:ea:
                    2b:bd:67:4e:0d:2a:0a:41:46:65:5a:60:ce:2e:0f:
                    db:5c:29:07:f0:6d:71:69:db:2e:73:c9:d6:76:79:
                    7f:75:f8:7f:85:dc:9a:a8:ad:05:23:6f:f6:fd:6c:
                    0e:65:41:f8:b6:ef:4d:58:c3:2c:82:26:81:9b:48:
                    8a:04:c2:93:55:95:8e:ef:29:88:47:68:da:1f:a2:
                    ec:33:70:9f:f3:5f:63:59:82:8a:3f:83:ce:4c:cc:
                    dd:08:08:80:91:34:3c:4e:64:fa:19:a9:e2:4d:e5:
                    54:b9:b9:d2:11:dd:07:70:1c:64:8d:59:e3:9f:1f:
                    36:3f:d5:59:e8:50:ed:25:ed:c2:90:3a:6d:a7:d3:
                    45:be:d4:e4:bd:17:4a:18:b6:84:d0:cf:bb:f0:87:
                    c8:51:bc:ad:3b:45:e7:38:70:3e:89:73:59:8b:70:
                    23:03:9b:ca:f3:0a:ba:b0:2a:a7:74:28:2a:f0:c2:
                    7f:d2:e1:de:62:cd:33:3c:ba:3e:6b:96:67:55:f3:
                    21:d6:7c:90:bd:c9:a6:bc:05:42:79:37:52:82:e3:
                    a9:a1
                Exponent: 65537 (0x10001)
        X509v3 extensions:
            X509v3 Basic Constraints: 
                CA:FALSE
            X509v3 Subject Key Identifier: 
                C0:66:52:5C:36:82:A1:A1:B7:69:05:0F:CB:2A:C3:1D:BF:FE:F4:52
            X509v3 Authority Key Identifier: 
                keyid:94:0F:9E:86:A5:18:2D:75:E5:02:0B:E4:B2:CE:EF:4B:FA:C3:EC:B2
                DirName:/CN=Easy-RSA CA
                serial:F3:43:44:15:69:4E:BB:18

            X509v3 Extended Key Usage: 
                TLS Web Server Authentication
            X509v3 Key Usage: 
                Digital Signature, Key Encipherment
            X509v3 Subject Alternative Name: 
                DNS:server
    Signature Algorithm: sha256WithRSAEncryption
         e5:f0:ed:6f:2d:59:df:83:26:60:d4:20:98:7f:19:d2:9b:c1:
         e1:9b:25:29:10:69:2e:96:a1:36:2d:ee:9f:3c:07:b9:a0:f5:
         6c:67:d5:ca:82:5f:59:97:87:9a:48:29:ea:51:b4:5a:e9:42:
         bf:bb:71:e3:28:a2:4f:0d:5c:1d:7e:6d:46:a4:da:d7:df:d5:
         59:70:bf:84:d8:35:cf:2a:3f:89:d4:77:18:15:5a:0a:9e:6b:
         49:d3:6d:7f:25:01:6b:82:a2:3d:17:91:12:80:78:4e:0e:76:
         1c:fb:70:bf:57:d5:e8:aa:40:11:37:80:d4:66:6d:f3:64:a3:
         86:d7:d5:50:2c:99:76:d6:44:0d:d7:b4:36:5b:d3:86:96:02:
         79:6c:3b:9e:07:3b:9b:43:17:02:d4:dd:f7:b3:1f:66:fd:76:
         bc:7c:f4:99:e8:a3:7f:cd:f3:85:5e:f1:d9:44:38:2a:27:5a:
         b1:16:1f:47:2f:fc:23:a4:32:fd:3e:50:8b:d5:cf:9b:70:b4:
         84:d7:2f:e7:86:19:ce:f5:93:67:22:ed:24:b9:70:c6:bd:f1:
         27:00:20:45:66:37:7f:cc:29:db:42:55:32:26:f4:9d:e4:a2:
         4e:54:6b:7e:c1:fe:2e:f3:b9:dc:b1:50:84:5b:07:ad:c3:e6:
         a1:7d:61:9f
-----BEGIN CERTIFICATE-----
MIIDXTCCAkWgAwIBAgIRAPXtECV6myJ2HmpRoM2JPpIwDQYJKoZIhvcNAQELBQAw
FjEUMBIGA1UEAwwLRWFzeS1SU0EgQ0EwHhcNMjMwNzE0MDk1NzA0WhcNMzMwNzEx
MDk1NzA0WjARMQ8wDQYDVQQDDAZzZXJ2ZXIwggEiMA0GCSqGSIb3DQEBAQUAA4IB
DwAwggEKAoIBAQC+oirXHABkFkpPUime0b+SP8Z5WWqpyj0+PzM201qty7TZymSD
TRhzGMqr6iu9Z04NKgpBRmVaYM4uD9tcKQfwbXFp2y5zydZ2eX91+H+F3JqorQUj
b/b9bA5lQfi2701YwyyCJoGbSIoEwpNVlY7vKYhHaNofouwzcJ/zX2NZgoo/g85M
zN0ICICRNDxOZPoZqeJN5VS5udIR3QdwHGSNWeOfHzY/1VnoUO0l7cKQOm2n00W+
1OS9F0oYtoTQz7vwh8hRvK07Rec4cD6Jc1mLcCMDm8rzCrqwKqd0KCrwwn/S4d5i
zTM8uj5rlmdV8yHWfJC9yaa8BUJ5N1KC46mhAgMBAAGjgaowgacwCQYDVR0TBAIw
ADAdBgNVHQ4EFgQUwGZSXDaCoaG3aQUPyyrDHb/+9FIwRgYDVR0jBD8wPYAUlA+e
hqUYLXXlAgvkss7vS/rD7LKhGqQYMBYxFDASBgNVBAMMC0Vhc3ktUlNBIENBggkA
80NEFWlOuxgwEwYDVR0lBAwwCgYIKwYBBQUHAwEwCwYDVR0PBAQDAgWgMBEGA1Ud
EQQKMAiCBnNlcnZlcjANBgkqhkiG9w0BAQsFAAOCAQEA5fDtby1Z34MmYNQgmH8Z
0pvB4ZslKRBpLpahNi3unzwHuaD1bGfVyoJfWZeHmkgp6lG0WulCv7tx4yiiTw1c
HX5tRqTa19/VWXC/hNg1zyo/idR3GBVaCp5rSdNtfyUBa4KiPReREoB4Tg52HPtw
v1fV6KpAETeA1GZt82SjhtfVUCyZdtZEDde0NlvThpYCeWw7ngc7m0MXAtTd97Mf
Zv12vHz0meijf83zhV7x2UQ4KidasRYfRy/8I6Qy/T5Qi9XPm3C0hNcv54YZzvWT
ZyLtJLlwxr3xJwAgRWY3f8wp20JVMib0neSiTlRrfsH+LvO53LFQhFsHrcPmoX1h
nw==
-----END CERTIFICATE-----
